ARM GAS  C:\Users\lenovo\AppData\Local\Temp\ccs658DT.s 			page 1


   1              		.syntax unified
   2              		.cpu cortex-m3
   3              		.fpu softvfp
   4              		.eabi_attribute 20, 1
   5              		.eabi_attribute 21, 1
   6              		.eabi_attribute 23, 3
   7              		.eabi_attribute 24, 1
   8              		.eabi_attribute 25, 1
   9              		.eabi_attribute 26, 1
  10              		.eabi_attribute 30, 1
  11              		.eabi_attribute 34, 1
  12              		.eabi_attribute 18, 4
  13              		.thumb
  14              		.file	"cyfitter_cfg.c"
  15              		.text
  16              	.Ltext0:
  17              		.cfi_sections	.debug_frame
  18              		.section	.text.CyClockStartupError,"ax",%progbits
  19              		.align	2
  20              		.thumb
  21              		.thumb_func
  22              		.type	CyClockStartupError, %function
  23              	CyClockStartupError:
  24              	.LFB3:
  25              		.file 1 ".\\Generated_Source\\PSoC5\\cyfitter_cfg.c"
   1:.\Generated_Source\PSoC5/cyfitter_cfg.c **** /*******************************************************************************
   2:.\Generated_Source\PSoC5/cyfitter_cfg.c **** * File Name: cyfitter_cfg.c
   3:.\Generated_Source\PSoC5/cyfitter_cfg.c **** * 
   4:.\Generated_Source\PSoC5/cyfitter_cfg.c **** * PSoC Creator  3.3 CP3
   5:.\Generated_Source\PSoC5/cyfitter_cfg.c **** *
   6:.\Generated_Source\PSoC5/cyfitter_cfg.c **** * Description:
   7:.\Generated_Source\PSoC5/cyfitter_cfg.c **** * This file contains device initialization code.
   8:.\Generated_Source\PSoC5/cyfitter_cfg.c **** * Except for the user defined sections in CyClockStartupError(), this file should not be modified.
   9:.\Generated_Source\PSoC5/cyfitter_cfg.c **** * This file is automatically generated by PSoC Creator.
  10:.\Generated_Source\PSoC5/cyfitter_cfg.c **** *
  11:.\Generated_Source\PSoC5/cyfitter_cfg.c **** ********************************************************************************
  12:.\Generated_Source\PSoC5/cyfitter_cfg.c **** * Copyright (c) 2007-2016 Cypress Semiconductor.  All rights reserved.
  13:.\Generated_Source\PSoC5/cyfitter_cfg.c **** * You may use this file only in accordance with the license, terms, conditions, 
  14:.\Generated_Source\PSoC5/cyfitter_cfg.c **** * disclaimers, and limitations in the end user license agreement accompanying 
  15:.\Generated_Source\PSoC5/cyfitter_cfg.c **** * the software package with which this file was provided.
  16:.\Generated_Source\PSoC5/cyfitter_cfg.c **** ********************************************************************************/
  17:.\Generated_Source\PSoC5/cyfitter_cfg.c **** 
  18:.\Generated_Source\PSoC5/cyfitter_cfg.c **** #include <string.h>
  19:.\Generated_Source\PSoC5/cyfitter_cfg.c **** #include "cytypes.h"
  20:.\Generated_Source\PSoC5/cyfitter_cfg.c **** #include "cydevice_trm.h"
  21:.\Generated_Source\PSoC5/cyfitter_cfg.c **** #include "cyfitter.h"
  22:.\Generated_Source\PSoC5/cyfitter_cfg.c **** #include "CyLib.h"
  23:.\Generated_Source\PSoC5/cyfitter_cfg.c **** #include "cyfitter_cfg.h"
  24:.\Generated_Source\PSoC5/cyfitter_cfg.c **** 
  25:.\Generated_Source\PSoC5/cyfitter_cfg.c **** #define CY_NEED_CYCLOCKSTARTUPERROR 1
  26:.\Generated_Source\PSoC5/cyfitter_cfg.c **** 
  27:.\Generated_Source\PSoC5/cyfitter_cfg.c **** 
  28:.\Generated_Source\PSoC5/cyfitter_cfg.c **** #if defined(__GNUC__) || defined(__ARMCC_VERSION)
  29:.\Generated_Source\PSoC5/cyfitter_cfg.c ****     #define CYPACKED 
  30:.\Generated_Source\PSoC5/cyfitter_cfg.c ****     #define CYPACKED_ATTR __attribute__ ((packed))
  31:.\Generated_Source\PSoC5/cyfitter_cfg.c ****     #define CYALIGNED __attribute__ ((aligned))
  32:.\Generated_Source\PSoC5/cyfitter_cfg.c ****     #define CY_CFG_UNUSED __attribute__ ((unused))
ARM GAS  C:\Users\lenovo\AppData\Local\Temp\ccs658DT.s 			page 2


  33:.\Generated_Source\PSoC5/cyfitter_cfg.c ****     #ifndef CY_CFG_SECTION
  34:.\Generated_Source\PSoC5/cyfitter_cfg.c ****         #define CY_CFG_SECTION __attribute__ ((section(".psocinit")))
  35:.\Generated_Source\PSoC5/cyfitter_cfg.c ****     #endif
  36:.\Generated_Source\PSoC5/cyfitter_cfg.c ****     
  37:.\Generated_Source\PSoC5/cyfitter_cfg.c ****     #if defined(__ARMCC_VERSION)
  38:.\Generated_Source\PSoC5/cyfitter_cfg.c ****         #define CY_CFG_MEMORY_BARRIER() __memory_changed()
  39:.\Generated_Source\PSoC5/cyfitter_cfg.c ****     #else
  40:.\Generated_Source\PSoC5/cyfitter_cfg.c ****         #define CY_CFG_MEMORY_BARRIER() __sync_synchronize()
  41:.\Generated_Source\PSoC5/cyfitter_cfg.c ****     #endif
  42:.\Generated_Source\PSoC5/cyfitter_cfg.c ****     
  43:.\Generated_Source\PSoC5/cyfitter_cfg.c **** #elif defined(__ICCARM__)
  44:.\Generated_Source\PSoC5/cyfitter_cfg.c ****     #include <intrinsics.h>
  45:.\Generated_Source\PSoC5/cyfitter_cfg.c **** 
  46:.\Generated_Source\PSoC5/cyfitter_cfg.c ****     #define CYPACKED __packed
  47:.\Generated_Source\PSoC5/cyfitter_cfg.c ****     #define CYPACKED_ATTR 
  48:.\Generated_Source\PSoC5/cyfitter_cfg.c ****     #define CYALIGNED _Pragma("data_alignment=4")
  49:.\Generated_Source\PSoC5/cyfitter_cfg.c ****     #define CY_CFG_UNUSED _Pragma("diag_suppress=Pe177")
  50:.\Generated_Source\PSoC5/cyfitter_cfg.c ****     #define CY_CFG_SECTION _Pragma("location=\".psocinit\"")
  51:.\Generated_Source\PSoC5/cyfitter_cfg.c ****     
  52:.\Generated_Source\PSoC5/cyfitter_cfg.c ****     #define CY_CFG_MEMORY_BARRIER() __DMB()
  53:.\Generated_Source\PSoC5/cyfitter_cfg.c ****     
  54:.\Generated_Source\PSoC5/cyfitter_cfg.c **** #else
  55:.\Generated_Source\PSoC5/cyfitter_cfg.c ****     #error Unsupported toolchain
  56:.\Generated_Source\PSoC5/cyfitter_cfg.c **** #endif
  57:.\Generated_Source\PSoC5/cyfitter_cfg.c **** 
  58:.\Generated_Source\PSoC5/cyfitter_cfg.c **** 
  59:.\Generated_Source\PSoC5/cyfitter_cfg.c **** CY_CFG_UNUSED
  60:.\Generated_Source\PSoC5/cyfitter_cfg.c **** static void CYMEMZERO(void *s, size_t n);
  61:.\Generated_Source\PSoC5/cyfitter_cfg.c **** CY_CFG_UNUSED
  62:.\Generated_Source\PSoC5/cyfitter_cfg.c **** static void CYMEMZERO(void *s, size_t n)
  63:.\Generated_Source\PSoC5/cyfitter_cfg.c **** {
  64:.\Generated_Source\PSoC5/cyfitter_cfg.c **** 	(void)memset(s, 0, n);
  65:.\Generated_Source\PSoC5/cyfitter_cfg.c **** }
  66:.\Generated_Source\PSoC5/cyfitter_cfg.c **** CY_CFG_UNUSED
  67:.\Generated_Source\PSoC5/cyfitter_cfg.c **** static void CYCONFIGCPY(void *dest, const void *src, size_t n);
  68:.\Generated_Source\PSoC5/cyfitter_cfg.c **** CY_CFG_UNUSED
  69:.\Generated_Source\PSoC5/cyfitter_cfg.c **** static void CYCONFIGCPY(void *dest, const void *src, size_t n)
  70:.\Generated_Source\PSoC5/cyfitter_cfg.c **** {
  71:.\Generated_Source\PSoC5/cyfitter_cfg.c **** 	(void)memcpy(dest, src, n);
  72:.\Generated_Source\PSoC5/cyfitter_cfg.c **** }
  73:.\Generated_Source\PSoC5/cyfitter_cfg.c **** CY_CFG_UNUSED
  74:.\Generated_Source\PSoC5/cyfitter_cfg.c **** static void CYCONFIGCPYCODE(void *dest, const void *src, size_t n);
  75:.\Generated_Source\PSoC5/cyfitter_cfg.c **** CY_CFG_UNUSED
  76:.\Generated_Source\PSoC5/cyfitter_cfg.c **** static void CYCONFIGCPYCODE(void *dest, const void *src, size_t n)
  77:.\Generated_Source\PSoC5/cyfitter_cfg.c **** {
  78:.\Generated_Source\PSoC5/cyfitter_cfg.c **** 	(void)memcpy(dest, src, n);
  79:.\Generated_Source\PSoC5/cyfitter_cfg.c **** }
  80:.\Generated_Source\PSoC5/cyfitter_cfg.c **** 
  81:.\Generated_Source\PSoC5/cyfitter_cfg.c **** 
  82:.\Generated_Source\PSoC5/cyfitter_cfg.c **** 
  83:.\Generated_Source\PSoC5/cyfitter_cfg.c **** /* Clock startup error codes                                                   */
  84:.\Generated_Source\PSoC5/cyfitter_cfg.c **** #define CYCLOCKSTART_NO_ERROR    0u
  85:.\Generated_Source\PSoC5/cyfitter_cfg.c **** #define CYCLOCKSTART_XTAL_ERROR  1u
  86:.\Generated_Source\PSoC5/cyfitter_cfg.c **** #define CYCLOCKSTART_32KHZ_ERROR 2u
  87:.\Generated_Source\PSoC5/cyfitter_cfg.c **** #define CYCLOCKSTART_PLL_ERROR   3u
  88:.\Generated_Source\PSoC5/cyfitter_cfg.c **** 
  89:.\Generated_Source\PSoC5/cyfitter_cfg.c **** #ifdef CY_NEED_CYCLOCKSTARTUPERROR
ARM GAS  C:\Users\lenovo\AppData\Local\Temp\ccs658DT.s 			page 3


  90:.\Generated_Source\PSoC5/cyfitter_cfg.c **** /*******************************************************************************
  91:.\Generated_Source\PSoC5/cyfitter_cfg.c **** * Function Name: CyClockStartupError
  92:.\Generated_Source\PSoC5/cyfitter_cfg.c **** ********************************************************************************
  93:.\Generated_Source\PSoC5/cyfitter_cfg.c **** * Summary:
  94:.\Generated_Source\PSoC5/cyfitter_cfg.c **** *  If an error is encountered during clock configuration (crystal startup error,
  95:.\Generated_Source\PSoC5/cyfitter_cfg.c **** *  PLL lock error, etc.), the system will end up here.  Unless reimplemented by
  96:.\Generated_Source\PSoC5/cyfitter_cfg.c **** *  the customer, this function will stop in an infinite loop.
  97:.\Generated_Source\PSoC5/cyfitter_cfg.c **** *
  98:.\Generated_Source\PSoC5/cyfitter_cfg.c **** * Parameters:
  99:.\Generated_Source\PSoC5/cyfitter_cfg.c **** *   void
 100:.\Generated_Source\PSoC5/cyfitter_cfg.c **** *
 101:.\Generated_Source\PSoC5/cyfitter_cfg.c **** * Return:
 102:.\Generated_Source\PSoC5/cyfitter_cfg.c **** *   void
 103:.\Generated_Source\PSoC5/cyfitter_cfg.c **** *
 104:.\Generated_Source\PSoC5/cyfitter_cfg.c **** *******************************************************************************/
 105:.\Generated_Source\PSoC5/cyfitter_cfg.c **** CY_CFG_UNUSED
 106:.\Generated_Source\PSoC5/cyfitter_cfg.c **** static void CyClockStartupError(uint8 errorCode);
 107:.\Generated_Source\PSoC5/cyfitter_cfg.c **** CY_CFG_UNUSED
 108:.\Generated_Source\PSoC5/cyfitter_cfg.c **** static void CyClockStartupError(uint8 errorCode)
 109:.\Generated_Source\PSoC5/cyfitter_cfg.c **** {
  26              		.loc 1 109 0
  27              		.cfi_startproc
  28              		@ Volatile: function does not return.
  29              		@ args = 0, pretend = 0, frame = 0
  30              		@ frame_needed = 0, uses_anonymous_args = 0
  31              		@ link register save eliminated.
  32              	.LVL0:
  33              	.L2:
 110:.\Generated_Source\PSoC5/cyfitter_cfg.c ****     /* To remove the compiler warning if errorCode not used.                */
 111:.\Generated_Source\PSoC5/cyfitter_cfg.c ****     errorCode = errorCode;
 112:.\Generated_Source\PSoC5/cyfitter_cfg.c **** 
 113:.\Generated_Source\PSoC5/cyfitter_cfg.c ****     /* `#START CyClockStartupError` */
 114:.\Generated_Source\PSoC5/cyfitter_cfg.c **** 
 115:.\Generated_Source\PSoC5/cyfitter_cfg.c ****     /* If we have a clock startup error (bad MHz crystal, PLL lock, etc.),  */
 116:.\Generated_Source\PSoC5/cyfitter_cfg.c ****     /* we will end up here to allow the customer to implement something to  */
 117:.\Generated_Source\PSoC5/cyfitter_cfg.c ****     /* deal with the clock condition.                                       */
 118:.\Generated_Source\PSoC5/cyfitter_cfg.c **** 
 119:.\Generated_Source\PSoC5/cyfitter_cfg.c ****     /* `#END` */
 120:.\Generated_Source\PSoC5/cyfitter_cfg.c **** 
 121:.\Generated_Source\PSoC5/cyfitter_cfg.c ****     /* If nothing else, stop here since the clocks have not started         */
 122:.\Generated_Source\PSoC5/cyfitter_cfg.c ****     /* correctly.                                                           */
 123:.\Generated_Source\PSoC5/cyfitter_cfg.c ****     while(1) {}
  34              		.loc 1 123 0 discriminator 1
  35 0000 FEE7     		b	.L2
  36              		.cfi_endproc
  37              	.LFE3:
  38              		.size	CyClockStartupError, .-CyClockStartupError
  39 0002 00BF     		.section	.text.cfg_write_bytes32,"ax",%progbits
  40              		.align	2
  41              		.thumb
  42              		.thumb_func
  43              		.type	cfg_write_bytes32, %function
  44              	cfg_write_bytes32:
  45              	.LFB4:
 124:.\Generated_Source\PSoC5/cyfitter_cfg.c **** }
 125:.\Generated_Source\PSoC5/cyfitter_cfg.c **** #endif
 126:.\Generated_Source\PSoC5/cyfitter_cfg.c **** 
ARM GAS  C:\Users\lenovo\AppData\Local\Temp\ccs658DT.s 			page 4


 127:.\Generated_Source\PSoC5/cyfitter_cfg.c **** #define CY_CFG_BASE_ADDR_COUNT 25u
 128:.\Generated_Source\PSoC5/cyfitter_cfg.c **** CYPACKED typedef struct
 129:.\Generated_Source\PSoC5/cyfitter_cfg.c **** {
 130:.\Generated_Source\PSoC5/cyfitter_cfg.c **** 	uint8 offset;
 131:.\Generated_Source\PSoC5/cyfitter_cfg.c **** 	uint8 value;
 132:.\Generated_Source\PSoC5/cyfitter_cfg.c **** } CYPACKED_ATTR cy_cfg_addrvalue_t;
 133:.\Generated_Source\PSoC5/cyfitter_cfg.c **** 
 134:.\Generated_Source\PSoC5/cyfitter_cfg.c **** #define cy_cfg_addr_table ((const uint32 CYFAR *)0x48000000u)
 135:.\Generated_Source\PSoC5/cyfitter_cfg.c **** #define cy_cfg_data_table ((const cy_cfg_addrvalue_t CYFAR *)0x48000064u)
 136:.\Generated_Source\PSoC5/cyfitter_cfg.c **** 
 137:.\Generated_Source\PSoC5/cyfitter_cfg.c **** /* UDB_1_5_1_CONFIG Address: CYDEV_UCFG_B0_P0_U1_BASE Size (bytes): 128 */
 138:.\Generated_Source\PSoC5/cyfitter_cfg.c **** #define BS_UDB_1_5_1_CONFIG_VAL ((const uint8 CYFAR *)0x480005D0u)
 139:.\Generated_Source\PSoC5/cyfitter_cfg.c **** 
 140:.\Generated_Source\PSoC5/cyfitter_cfg.c **** /* UDB_1_3_0_CONFIG Address: CYDEV_UCFG_B0_P2_U0_BASE Size (bytes): 128 */
 141:.\Generated_Source\PSoC5/cyfitter_cfg.c **** #define BS_UDB_1_3_0_CONFIG_VAL ((const uint8 CYFAR *)0x48000650u)
 142:.\Generated_Source\PSoC5/cyfitter_cfg.c **** 
 143:.\Generated_Source\PSoC5/cyfitter_cfg.c **** /* IOPINS0_1 Address: CYREG_PRT1_DM0 Size (bytes): 8 */
 144:.\Generated_Source\PSoC5/cyfitter_cfg.c **** #define BS_IOPINS0_1_VAL ((const uint8 CYFAR *)0x480006D0u)
 145:.\Generated_Source\PSoC5/cyfitter_cfg.c **** 
 146:.\Generated_Source\PSoC5/cyfitter_cfg.c **** /* IOPINS0_4 Address: CYREG_PRT4_DR Size (bytes): 10 */
 147:.\Generated_Source\PSoC5/cyfitter_cfg.c **** #define BS_IOPINS0_4_VAL ((const uint8 CYFAR *)0x480006D8u)
 148:.\Generated_Source\PSoC5/cyfitter_cfg.c **** 
 149:.\Generated_Source\PSoC5/cyfitter_cfg.c **** 
 150:.\Generated_Source\PSoC5/cyfitter_cfg.c **** /*******************************************************************************
 151:.\Generated_Source\PSoC5/cyfitter_cfg.c **** * Function Name: cfg_write_bytes32
 152:.\Generated_Source\PSoC5/cyfitter_cfg.c **** ********************************************************************************
 153:.\Generated_Source\PSoC5/cyfitter_cfg.c **** * Summary:
 154:.\Generated_Source\PSoC5/cyfitter_cfg.c **** *  This function is used for setting up the chip configuration areas that
 155:.\Generated_Source\PSoC5/cyfitter_cfg.c **** *  contain relatively sparse data.
 156:.\Generated_Source\PSoC5/cyfitter_cfg.c **** *
 157:.\Generated_Source\PSoC5/cyfitter_cfg.c **** * Parameters:
 158:.\Generated_Source\PSoC5/cyfitter_cfg.c **** *   void
 159:.\Generated_Source\PSoC5/cyfitter_cfg.c **** *
 160:.\Generated_Source\PSoC5/cyfitter_cfg.c **** * Return:
 161:.\Generated_Source\PSoC5/cyfitter_cfg.c **** *   void
 162:.\Generated_Source\PSoC5/cyfitter_cfg.c **** *
 163:.\Generated_Source\PSoC5/cyfitter_cfg.c **** *******************************************************************************/
 164:.\Generated_Source\PSoC5/cyfitter_cfg.c **** static void cfg_write_bytes32(const uint32 addr_table[], const cy_cfg_addrvalue_t data_table[]);
 165:.\Generated_Source\PSoC5/cyfitter_cfg.c **** static void cfg_write_bytes32(const uint32 addr_table[], const cy_cfg_addrvalue_t data_table[])
 166:.\Generated_Source\PSoC5/cyfitter_cfg.c **** {
  46              		.loc 1 166 0
  47              		.cfi_startproc
  48              		@ args = 0, pretend = 0, frame = 0
  49              		@ frame_needed = 0, uses_anonymous_args = 0
  50              		@ link register save eliminated.
  51              	.LVL1:
  52 0000 F0B4     		push	{r4, r5, r6, r7}
  53              		.cfi_def_cfa_offset 16
  54              		.cfi_offset 4, -16
  55              		.cfi_offset 5, -12
  56              		.cfi_offset 6, -8
  57              		.cfi_offset 7, -4
  58              	.LVL2:
 167:.\Generated_Source\PSoC5/cyfitter_cfg.c **** 	/* For 32-bit little-endian architectures */
 168:.\Generated_Source\PSoC5/cyfitter_cfg.c **** 	uint32 i, j = 0u;
  59              		.loc 1 168 0
  60 0002 0022     		movs	r2, #0
ARM GAS  C:\Users\lenovo\AppData\Local\Temp\ccs658DT.s 			page 5


 169:.\Generated_Source\PSoC5/cyfitter_cfg.c **** 	for (i = 0u; i < CY_CFG_BASE_ADDR_COUNT; i++)
  61              		.loc 1 169 0
  62 0004 1746     		mov	r7, r2
  63 0006 11E0     		b	.L4
  64              	.LVL3:
  65              	.L7:
  66              	.LBB2:
 170:.\Generated_Source\PSoC5/cyfitter_cfg.c **** 	{
 171:.\Generated_Source\PSoC5/cyfitter_cfg.c **** 		uint32 baseAddr = addr_table[i];
  67              		.loc 1 171 0
  68 0008 50F82760 		ldr	r6, [r0, r7, lsl #2]
  69              	.LVL4:
 172:.\Generated_Source\PSoC5/cyfitter_cfg.c **** 		uint8 count = (uint8)baseAddr;
  70              		.loc 1 172 0
  71 000c F3B2     		uxtb	r3, r6
  72              	.LVL5:
 173:.\Generated_Source\PSoC5/cyfitter_cfg.c **** 		baseAddr &= 0xFFFFFF00u;
  73              		.loc 1 173 0
  74 000e 26F0FF06 		bic	r6, r6, #255
  75              	.LVL6:
 174:.\Generated_Source\PSoC5/cyfitter_cfg.c **** 		while (count != 0u)
  76              		.loc 1 174 0
  77 0012 08E0     		b	.L5
  78              	.L6:
 175:.\Generated_Source\PSoC5/cyfitter_cfg.c **** 		{
 176:.\Generated_Source\PSoC5/cyfitter_cfg.c **** 			CY_SET_XTND_REG8((void CYFAR *)(baseAddr + data_table[j].offset), data_table[j].value);
  79              		.loc 1 176 0
  80 0014 01EB4205 		add	r5, r1, r2, lsl #1
  81 0018 11F81240 		ldrb	r4, [r1, r2, lsl #1]	@ zero_extendqisi2
  82 001c 6D78     		ldrb	r5, [r5, #1]	@ zero_extendqisi2
  83 001e A555     		strb	r5, [r4, r6]
 177:.\Generated_Source\PSoC5/cyfitter_cfg.c **** 			j++;
  84              		.loc 1 177 0
  85 0020 0132     		adds	r2, r2, #1
  86              	.LVL7:
 178:.\Generated_Source\PSoC5/cyfitter_cfg.c **** 			count--;
  87              		.loc 1 178 0
  88 0022 013B     		subs	r3, r3, #1
  89              	.LVL8:
  90 0024 DBB2     		uxtb	r3, r3
  91              	.LVL9:
  92              	.L5:
 174:.\Generated_Source\PSoC5/cyfitter_cfg.c **** 		{
  93              		.loc 1 174 0
  94 0026 002B     		cmp	r3, #0
  95 0028 F4D1     		bne	.L6
  96              	.LBE2:
 169:.\Generated_Source\PSoC5/cyfitter_cfg.c **** 	{
  97              		.loc 1 169 0 discriminator 2
  98 002a 0137     		adds	r7, r7, #1
  99              	.LVL10:
 100              	.L4:
 169:.\Generated_Source\PSoC5/cyfitter_cfg.c **** 	{
 101              		.loc 1 169 0 is_stmt 0 discriminator 1
 102 002c 182F     		cmp	r7, #24
 103 002e EBD9     		bls	.L7
 179:.\Generated_Source\PSoC5/cyfitter_cfg.c **** 		}
ARM GAS  C:\Users\lenovo\AppData\Local\Temp\ccs658DT.s 			page 6


 180:.\Generated_Source\PSoC5/cyfitter_cfg.c **** 	}
 181:.\Generated_Source\PSoC5/cyfitter_cfg.c **** }
 104              		.loc 1 181 0 is_stmt 1
 105 0030 F0BC     		pop	{r4, r5, r6, r7}
 106              		.cfi_restore 7
 107              		.cfi_restore 6
 108              		.cfi_restore 5
 109              		.cfi_restore 4
 110              		.cfi_def_cfa_offset 0
 111              	.LVL11:
 112 0032 7047     		bx	lr
 113              		.cfi_endproc
 114              	.LFE4:
 115              		.size	cfg_write_bytes32, .-cfg_write_bytes32
 116              		.section	.text.AnalogSetDefault,"ax",%progbits
 117              		.align	2
 118              		.thumb
 119              		.thumb_func
 120              		.type	AnalogSetDefault, %function
 121              	AnalogSetDefault:
 122              	.LFB6:
 182:.\Generated_Source\PSoC5/cyfitter_cfg.c **** 
 183:.\Generated_Source\PSoC5/cyfitter_cfg.c **** /*******************************************************************************
 184:.\Generated_Source\PSoC5/cyfitter_cfg.c **** * Function Name: ClockSetup
 185:.\Generated_Source\PSoC5/cyfitter_cfg.c **** ********************************************************************************
 186:.\Generated_Source\PSoC5/cyfitter_cfg.c **** *
 187:.\Generated_Source\PSoC5/cyfitter_cfg.c **** * Summary:
 188:.\Generated_Source\PSoC5/cyfitter_cfg.c **** *  Performs the initialization of all of the clocks in the device based on the
 189:.\Generated_Source\PSoC5/cyfitter_cfg.c **** *  settings in the Clock tab of the DWR.  This includes enabling the requested
 190:.\Generated_Source\PSoC5/cyfitter_cfg.c **** *  clocks and setting the necessary dividers to produce the desired frequency. 
 191:.\Generated_Source\PSoC5/cyfitter_cfg.c **** *
 192:.\Generated_Source\PSoC5/cyfitter_cfg.c **** * Parameters:
 193:.\Generated_Source\PSoC5/cyfitter_cfg.c **** *  void
 194:.\Generated_Source\PSoC5/cyfitter_cfg.c **** *
 195:.\Generated_Source\PSoC5/cyfitter_cfg.c **** * Return:
 196:.\Generated_Source\PSoC5/cyfitter_cfg.c **** *  void
 197:.\Generated_Source\PSoC5/cyfitter_cfg.c **** *
 198:.\Generated_Source\PSoC5/cyfitter_cfg.c **** *******************************************************************************/
 199:.\Generated_Source\PSoC5/cyfitter_cfg.c **** static void ClockSetup(void);
 200:.\Generated_Source\PSoC5/cyfitter_cfg.c **** static void ClockSetup(void)
 201:.\Generated_Source\PSoC5/cyfitter_cfg.c **** {
 202:.\Generated_Source\PSoC5/cyfitter_cfg.c **** 	uint32 timeout;
 203:.\Generated_Source\PSoC5/cyfitter_cfg.c **** 	uint8 pllLock;
 204:.\Generated_Source\PSoC5/cyfitter_cfg.c **** 
 205:.\Generated_Source\PSoC5/cyfitter_cfg.c **** 
 206:.\Generated_Source\PSoC5/cyfitter_cfg.c **** 	/* Configure Digital Clocks based on settings from Clock DWR */
 207:.\Generated_Source\PSoC5/cyfitter_cfg.c **** 	CY_SET_XTND_REG16((void CYFAR *)(CYREG_CLKDIST_DCFG0_CFG0), 0x0044u);
 208:.\Generated_Source\PSoC5/cyfitter_cfg.c **** 	CY_SET_XTND_REG8((void CYFAR *)(CYREG_CLKDIST_DCFG0_CFG0 + 0x2u), 0x18u);
 209:.\Generated_Source\PSoC5/cyfitter_cfg.c **** 	CY_SET_XTND_REG16((void CYFAR *)(CYREG_CLKDIST_DCFG1_CFG0), 0x0340u);
 210:.\Generated_Source\PSoC5/cyfitter_cfg.c **** 	CY_SET_XTND_REG8((void CYFAR *)(CYREG_CLKDIST_DCFG1_CFG0 + 0x2u), 0x18u);
 211:.\Generated_Source\PSoC5/cyfitter_cfg.c **** 	CY_SET_XTND_REG16((void CYFAR *)(CYREG_CLKDIST_DCFG2_CFG0), 0x0340u);
 212:.\Generated_Source\PSoC5/cyfitter_cfg.c **** 	CY_SET_XTND_REG8((void CYFAR *)(CYREG_CLKDIST_DCFG2_CFG0 + 0x2u), 0x18u);
 213:.\Generated_Source\PSoC5/cyfitter_cfg.c **** 
 214:.\Generated_Source\PSoC5/cyfitter_cfg.c **** 	/* Configure ILO based on settings from Clock DWR */
 215:.\Generated_Source\PSoC5/cyfitter_cfg.c **** 	CY_SET_XTND_REG8((void CYFAR *)(CYREG_SLOWCLK_ILO_CR0), 0x06u);
 216:.\Generated_Source\PSoC5/cyfitter_cfg.c **** 
 217:.\Generated_Source\PSoC5/cyfitter_cfg.c **** 	/* Configure IMO based on settings from Clock DWR */
ARM GAS  C:\Users\lenovo\AppData\Local\Temp\ccs658DT.s 			page 7


 218:.\Generated_Source\PSoC5/cyfitter_cfg.c **** 	CY_SET_XTND_REG8((void CYFAR *)(CYREG_FASTCLK_IMO_CR), 0x52u);
 219:.\Generated_Source\PSoC5/cyfitter_cfg.c **** 	CY_SET_XTND_REG8((void CYFAR *)(CYREG_IMO_TR1), (CY_GET_XTND_REG8((void CYFAR *)CYREG_FLSHID_CUST_
 220:.\Generated_Source\PSoC5/cyfitter_cfg.c **** 
 221:.\Generated_Source\PSoC5/cyfitter_cfg.c **** 	/* Configure PLL based on settings from Clock DWR */
 222:.\Generated_Source\PSoC5/cyfitter_cfg.c **** 	CY_SET_XTND_REG16((void CYFAR *)(CYREG_FASTCLK_PLL_P), 0x0818u);
 223:.\Generated_Source\PSoC5/cyfitter_cfg.c **** 	CY_SET_XTND_REG16((void CYFAR *)(CYREG_FASTCLK_PLL_CFG0), 0x1251u);
 224:.\Generated_Source\PSoC5/cyfitter_cfg.c **** 	/* Wait up to 250us for the PLL to lock */
 225:.\Generated_Source\PSoC5/cyfitter_cfg.c **** 	pllLock = 0u;
 226:.\Generated_Source\PSoC5/cyfitter_cfg.c **** 	for (timeout = 250u / 10u; (timeout > 0u) && (pllLock != 0x03u); timeout--)
 227:.\Generated_Source\PSoC5/cyfitter_cfg.c **** 	{ 
 228:.\Generated_Source\PSoC5/cyfitter_cfg.c **** 		pllLock = 0x03u & ((uint8)((uint8)pllLock << 1) | ((CY_GET_XTND_REG8((void CYFAR *)CYREG_FASTCLK_
 229:.\Generated_Source\PSoC5/cyfitter_cfg.c **** 		CyDelayCycles(10u * 48u); /* Delay 10us based on 48MHz clock */
 230:.\Generated_Source\PSoC5/cyfitter_cfg.c **** 	}
 231:.\Generated_Source\PSoC5/cyfitter_cfg.c **** 	/* If we ran out of time the PLL didn't lock so go to the error function */
 232:.\Generated_Source\PSoC5/cyfitter_cfg.c **** 	if (timeout == 0u)
 233:.\Generated_Source\PSoC5/cyfitter_cfg.c **** 	{
 234:.\Generated_Source\PSoC5/cyfitter_cfg.c **** 		CyClockStartupError(CYCLOCKSTART_PLL_ERROR);
 235:.\Generated_Source\PSoC5/cyfitter_cfg.c **** 	}
 236:.\Generated_Source\PSoC5/cyfitter_cfg.c **** 
 237:.\Generated_Source\PSoC5/cyfitter_cfg.c **** 	/* Configure Bus/Master Clock based on settings from Clock DWR */
 238:.\Generated_Source\PSoC5/cyfitter_cfg.c **** 	CY_SET_XTND_REG16((void CYFAR *)(CYREG_CLKDIST_MSTR0), 0x0100u);
 239:.\Generated_Source\PSoC5/cyfitter_cfg.c **** 	CY_SET_XTND_REG8((void CYFAR *)(CYREG_CLKDIST_MSTR0), 0x07u);
 240:.\Generated_Source\PSoC5/cyfitter_cfg.c **** 	CY_SET_XTND_REG8((void CYFAR *)(CYREG_CLKDIST_BCFG0), 0x00u);
 241:.\Generated_Source\PSoC5/cyfitter_cfg.c **** 	CY_SET_XTND_REG8((void CYFAR *)(CYREG_CLKDIST_BCFG2), 0x48u);
 242:.\Generated_Source\PSoC5/cyfitter_cfg.c **** 	CY_SET_XTND_REG8((void CYFAR *)(CYREG_CLKDIST_MSTR0), 0x00u);
 243:.\Generated_Source\PSoC5/cyfitter_cfg.c **** 
 244:.\Generated_Source\PSoC5/cyfitter_cfg.c **** 	/* Configure USB Clock based on settings from Clock DWR */
 245:.\Generated_Source\PSoC5/cyfitter_cfg.c **** 	CY_SET_XTND_REG8((void CYFAR *)(CYREG_CLKDIST_UCFG), 0x00u);
 246:.\Generated_Source\PSoC5/cyfitter_cfg.c **** 	CY_SET_XTND_REG8((void CYFAR *)(CYREG_CLKDIST_LD), 0x02u);
 247:.\Generated_Source\PSoC5/cyfitter_cfg.c **** 
 248:.\Generated_Source\PSoC5/cyfitter_cfg.c **** 	CY_SET_XTND_REG8((void CYFAR *)(CYREG_PM_ACT_CFG2), ((CY_GET_XTND_REG8((void CYFAR *)CYREG_PM_ACT_
 249:.\Generated_Source\PSoC5/cyfitter_cfg.c **** }
 250:.\Generated_Source\PSoC5/cyfitter_cfg.c **** 
 251:.\Generated_Source\PSoC5/cyfitter_cfg.c **** 
 252:.\Generated_Source\PSoC5/cyfitter_cfg.c **** /* Analog API Functions */
 253:.\Generated_Source\PSoC5/cyfitter_cfg.c **** 
 254:.\Generated_Source\PSoC5/cyfitter_cfg.c **** 
 255:.\Generated_Source\PSoC5/cyfitter_cfg.c **** /*******************************************************************************
 256:.\Generated_Source\PSoC5/cyfitter_cfg.c **** * Function Name: AnalogSetDefault
 257:.\Generated_Source\PSoC5/cyfitter_cfg.c **** ********************************************************************************
 258:.\Generated_Source\PSoC5/cyfitter_cfg.c **** *
 259:.\Generated_Source\PSoC5/cyfitter_cfg.c **** * Summary:
 260:.\Generated_Source\PSoC5/cyfitter_cfg.c **** *  Sets up the analog portions of the chip to default values based on chip
 261:.\Generated_Source\PSoC5/cyfitter_cfg.c **** *  configuration options from the project.
 262:.\Generated_Source\PSoC5/cyfitter_cfg.c **** *
 263:.\Generated_Source\PSoC5/cyfitter_cfg.c **** * Parameters:
 264:.\Generated_Source\PSoC5/cyfitter_cfg.c **** *  void
 265:.\Generated_Source\PSoC5/cyfitter_cfg.c **** *
 266:.\Generated_Source\PSoC5/cyfitter_cfg.c **** * Return:
 267:.\Generated_Source\PSoC5/cyfitter_cfg.c **** *  void
 268:.\Generated_Source\PSoC5/cyfitter_cfg.c **** *
 269:.\Generated_Source\PSoC5/cyfitter_cfg.c **** *******************************************************************************/
 270:.\Generated_Source\PSoC5/cyfitter_cfg.c **** static void AnalogSetDefault(void);
 271:.\Generated_Source\PSoC5/cyfitter_cfg.c **** static void AnalogSetDefault(void)
 272:.\Generated_Source\PSoC5/cyfitter_cfg.c **** {
 123              		.loc 1 272 0
 124              		.cfi_startproc
ARM GAS  C:\Users\lenovo\AppData\Local\Temp\ccs658DT.s 			page 8


 125              		@ args = 0, pretend = 0, frame = 0
 126              		@ frame_needed = 0, uses_anonymous_args = 0
 127              		@ link register save eliminated.
 273:.\Generated_Source\PSoC5/cyfitter_cfg.c **** 	uint8 bg_xover_inl_trim = CY_GET_XTND_REG8((void CYFAR *)(CYREG_FLSHID_MFG_CFG_BG_XOVER_INL_TRIM +
 128              		.loc 1 273 0
 129 0000 064B     		ldr	r3, .L10
 130 0002 1B78     		ldrb	r3, [r3]	@ zero_extendqisi2
 131 0004 DBB2     		uxtb	r3, r3
 132              	.LVL12:
 274:.\Generated_Source\PSoC5/cyfitter_cfg.c **** 	CY_SET_XTND_REG8((void CYFAR *)(CYREG_BG_DFT0), (bg_xover_inl_trim & 0x07u));
 133              		.loc 1 274 0
 134 0006 03F00701 		and	r1, r3, #7
 135 000a 054A     		ldr	r2, .L10+4
 136 000c 1170     		strb	r1, [r2]
 275:.\Generated_Source\PSoC5/cyfitter_cfg.c **** 	CY_SET_XTND_REG8((void CYFAR *)(CYREG_BG_DFT1), ((bg_xover_inl_trim >> 4) & 0x0Fu));
 137              		.loc 1 275 0
 138 000e 1B09     		lsrs	r3, r3, #4
 139              	.LVL13:
 140 0010 0132     		adds	r2, r2, #1
 141 0012 1370     		strb	r3, [r2]
 276:.\Generated_Source\PSoC5/cyfitter_cfg.c **** 	CY_SET_XTND_REG8((void CYFAR *)CYREG_PUMP_CR0, 0x44u);
 142              		.loc 1 276 0
 143 0014 4422     		movs	r2, #68
 144 0016 034B     		ldr	r3, .L10+8
 145 0018 1A70     		strb	r2, [r3]
 146 001a 7047     		bx	lr
 147              	.L11:
 148              		.align	2
 149              	.L10:
 150 001c CF010049 		.word	1224737231
 151 0020 6E580040 		.word	1073764462
 152 0024 76580040 		.word	1073764470
 153              		.cfi_endproc
 154              	.LFE6:
 155              		.size	AnalogSetDefault, .-AnalogSetDefault
 156              		.section	.text.ClockSetup,"ax",%progbits
 157              		.align	2
 158              		.thumb
 159              		.thumb_func
 160              		.type	ClockSetup, %function
 161              	ClockSetup:
 162              	.LFB5:
 201:.\Generated_Source\PSoC5/cyfitter_cfg.c **** 	uint32 timeout;
 163              		.loc 1 201 0
 164              		.cfi_startproc
 165              		@ args = 0, pretend = 0, frame = 0
 166              		@ frame_needed = 0, uses_anonymous_args = 0
 167 0000 38B5     		push	{r3, r4, r5, lr}
 168              		.cfi_def_cfa_offset 16
 169              		.cfi_offset 3, -16
 170              		.cfi_offset 4, -12
 171              		.cfi_offset 5, -8
 172              		.cfi_offset 14, -4
 207:.\Generated_Source\PSoC5/cyfitter_cfg.c **** 	CY_SET_XTND_REG8((void CYFAR *)(CYREG_CLKDIST_DCFG0_CFG0 + 0x2u), 0x18u);
 173              		.loc 1 207 0
 174 0002 4422     		movs	r2, #68
 175 0004 284B     		ldr	r3, .L18
ARM GAS  C:\Users\lenovo\AppData\Local\Temp\ccs658DT.s 			page 9


 176 0006 1A80     		strh	r2, [r3]	@ movhi
 208:.\Generated_Source\PSoC5/cyfitter_cfg.c **** 	CY_SET_XTND_REG16((void CYFAR *)(CYREG_CLKDIST_DCFG1_CFG0), 0x0340u);
 177              		.loc 1 208 0
 178 0008 1823     		movs	r3, #24
 179 000a 284A     		ldr	r2, .L18+4
 180 000c 1370     		strb	r3, [r2]
 209:.\Generated_Source\PSoC5/cyfitter_cfg.c **** 	CY_SET_XTND_REG8((void CYFAR *)(CYREG_CLKDIST_DCFG1_CFG0 + 0x2u), 0x18u);
 181              		.loc 1 209 0
 182 000e 4FF45072 		mov	r2, #832
 183 0012 2749     		ldr	r1, .L18+8
 184 0014 0A80     		strh	r2, [r1]	@ movhi
 210:.\Generated_Source\PSoC5/cyfitter_cfg.c **** 	CY_SET_XTND_REG16((void CYFAR *)(CYREG_CLKDIST_DCFG2_CFG0), 0x0340u);
 185              		.loc 1 210 0
 186 0016 0231     		adds	r1, r1, #2
 187 0018 0B70     		strb	r3, [r1]
 211:.\Generated_Source\PSoC5/cyfitter_cfg.c **** 	CY_SET_XTND_REG8((void CYFAR *)(CYREG_CLKDIST_DCFG2_CFG0 + 0x2u), 0x18u);
 188              		.loc 1 211 0
 189 001a 0231     		adds	r1, r1, #2
 190 001c 0A80     		strh	r2, [r1]	@ movhi
 212:.\Generated_Source\PSoC5/cyfitter_cfg.c **** 
 191              		.loc 1 212 0
 192 001e 254A     		ldr	r2, .L18+12
 193 0020 1370     		strb	r3, [r2]
 215:.\Generated_Source\PSoC5/cyfitter_cfg.c **** 
 194              		.loc 1 215 0
 195 0022 0622     		movs	r2, #6
 196 0024 244B     		ldr	r3, .L18+16
 197 0026 1A70     		strb	r2, [r3]
 218:.\Generated_Source\PSoC5/cyfitter_cfg.c **** 	CY_SET_XTND_REG8((void CYFAR *)(CYREG_IMO_TR1), (CY_GET_XTND_REG8((void CYFAR *)CYREG_FLSHID_CUST_
 198              		.loc 1 218 0
 199 0028 5222     		movs	r2, #82
 200 002a A3F58073 		sub	r3, r3, #256
 201 002e 1A70     		strb	r2, [r3]
 219:.\Generated_Source\PSoC5/cyfitter_cfg.c **** 
 202              		.loc 1 219 0
 203 0030 224B     		ldr	r3, .L18+20
 204 0032 1B78     		ldrb	r3, [r3]	@ zero_extendqisi2
 205 0034 DBB2     		uxtb	r3, r3
 206 0036 224A     		ldr	r2, .L18+24
 207 0038 1370     		strb	r3, [r2]
 222:.\Generated_Source\PSoC5/cyfitter_cfg.c **** 	CY_SET_XTND_REG16((void CYFAR *)(CYREG_FASTCLK_PLL_CFG0), 0x1251u);
 208              		.loc 1 222 0
 209 003a 40F61802 		movw	r2, #2072
 210 003e 214B     		ldr	r3, .L18+28
 211 0040 1A80     		strh	r2, [r3]	@ movhi
 223:.\Generated_Source\PSoC5/cyfitter_cfg.c **** 	/* Wait up to 250us for the PLL to lock */
 212              		.loc 1 223 0
 213 0042 41F25122 		movw	r2, #4689
 214 0046 023B     		subs	r3, r3, #2
 215 0048 1A80     		strh	r2, [r3]	@ movhi
 216              	.LVL14:
 225:.\Generated_Source\PSoC5/cyfitter_cfg.c **** 	for (timeout = 250u / 10u; (timeout > 0u) && (pllLock != 0x03u); timeout--)
 217              		.loc 1 225 0
 218 004a 0024     		movs	r4, #0
 226:.\Generated_Source\PSoC5/cyfitter_cfg.c **** 	{ 
 219              		.loc 1 226 0
 220 004c 1925     		movs	r5, #25
ARM GAS  C:\Users\lenovo\AppData\Local\Temp\ccs658DT.s 			page 10


 221 004e 0CE0     		b	.L13
 222              	.LVL15:
 223              	.L15:
 228:.\Generated_Source\PSoC5/cyfitter_cfg.c **** 		CyDelayCycles(10u * 48u); /* Delay 10us based on 48MHz clock */
 224              		.loc 1 228 0 discriminator 4
 225 0050 1D4B     		ldr	r3, .L18+32
 226 0052 1B78     		ldrb	r3, [r3]	@ zero_extendqisi2
 227 0054 03F00103 		and	r3, r3, #1
 228 0058 43EA4404 		orr	r4, r3, r4, lsl #1
 229              	.LVL16:
 230 005c 04F00304 		and	r4, r4, #3
 231              	.LVL17:
 229:.\Generated_Source\PSoC5/cyfitter_cfg.c **** 	}
 232              		.loc 1 229 0 discriminator 4
 233 0060 4FF4F070 		mov	r0, #480
 234 0064 FFF7FEFF 		bl	CyDelayCycles
 235              	.LVL18:
 226:.\Generated_Source\PSoC5/cyfitter_cfg.c **** 	{ 
 236              		.loc 1 226 0 discriminator 4
 237 0068 013D     		subs	r5, r5, #1
 238              	.LVL19:
 239              	.L13:
 226:.\Generated_Source\PSoC5/cyfitter_cfg.c **** 	{ 
 240              		.loc 1 226 0 is_stmt 0 discriminator 1
 241 006a 0DB1     		cbz	r5, .L14
 226:.\Generated_Source\PSoC5/cyfitter_cfg.c **** 	{ 
 242              		.loc 1 226 0 discriminator 3
 243 006c 032C     		cmp	r4, #3
 244 006e EFD1     		bne	.L15
 245              	.L14:
 232:.\Generated_Source\PSoC5/cyfitter_cfg.c **** 	{
 246              		.loc 1 232 0 is_stmt 1
 247 0070 15B9     		cbnz	r5, .L16
 234:.\Generated_Source\PSoC5/cyfitter_cfg.c **** 	}
 248              		.loc 1 234 0
 249 0072 0320     		movs	r0, #3
 250 0074 FFF7FEFF 		bl	CyClockStartupError
 251              	.LVL20:
 252              	.L16:
 238:.\Generated_Source\PSoC5/cyfitter_cfg.c **** 	CY_SET_XTND_REG8((void CYFAR *)(CYREG_CLKDIST_MSTR0), 0x07u);
 253              		.loc 1 238 0
 254 0078 144A     		ldr	r2, .L18+36
 255 007a 4FF48073 		mov	r3, #256
 256 007e 1380     		strh	r3, [r2]	@ movhi
 239:.\Generated_Source\PSoC5/cyfitter_cfg.c **** 	CY_SET_XTND_REG8((void CYFAR *)(CYREG_CLKDIST_BCFG0), 0x00u);
 257              		.loc 1 239 0
 258 0080 0723     		movs	r3, #7
 259 0082 1370     		strb	r3, [r2]
 240:.\Generated_Source\PSoC5/cyfitter_cfg.c **** 	CY_SET_XTND_REG8((void CYFAR *)(CYREG_CLKDIST_BCFG2), 0x48u);
 260              		.loc 1 240 0
 261 0084 0023     		movs	r3, #0
 262 0086 1249     		ldr	r1, .L18+40
 263 0088 0B70     		strb	r3, [r1]
 241:.\Generated_Source\PSoC5/cyfitter_cfg.c **** 	CY_SET_XTND_REG8((void CYFAR *)(CYREG_CLKDIST_MSTR0), 0x00u);
 264              		.loc 1 241 0
 265 008a 4820     		movs	r0, #72
 266 008c 0231     		adds	r1, r1, #2
ARM GAS  C:\Users\lenovo\AppData\Local\Temp\ccs658DT.s 			page 11


 267 008e 0870     		strb	r0, [r1]
 242:.\Generated_Source\PSoC5/cyfitter_cfg.c **** 
 268              		.loc 1 242 0
 269 0090 1370     		strb	r3, [r2]
 245:.\Generated_Source\PSoC5/cyfitter_cfg.c **** 	CY_SET_XTND_REG8((void CYFAR *)(CYREG_CLKDIST_LD), 0x02u);
 270              		.loc 1 245 0
 271 0092 0532     		adds	r2, r2, #5
 272 0094 1370     		strb	r3, [r2]
 246:.\Generated_Source\PSoC5/cyfitter_cfg.c **** 
 273              		.loc 1 246 0
 274 0096 0222     		movs	r2, #2
 275 0098 0E4B     		ldr	r3, .L18+44
 276 009a 1A70     		strb	r2, [r3]
 248:.\Generated_Source\PSoC5/cyfitter_cfg.c **** }
 277              		.loc 1 248 0
 278 009c 0E4A     		ldr	r2, .L18+48
 279 009e 1378     		ldrb	r3, [r2]	@ zero_extendqisi2
 280 00a0 43F00703 		orr	r3, r3, #7
 281 00a4 1370     		strb	r3, [r2]
 282 00a6 38BD     		pop	{r3, r4, r5, pc}
 283              	.LVL21:
 284              	.L19:
 285              		.align	2
 286              	.L18:
 287 00a8 80400040 		.word	1073758336
 288 00ac 82400040 		.word	1073758338
 289 00b0 84400040 		.word	1073758340
 290 00b4 8A400040 		.word	1073758346
 291 00b8 00430040 		.word	1073758976
 292 00bc 0F010049 		.word	1224737039
 293 00c0 A1460040 		.word	1073759905
 294 00c4 22420040 		.word	1073758754
 295 00c8 25420040 		.word	1073758757
 296 00cc 04400040 		.word	1073758212
 297 00d0 06400040 		.word	1073758214
 298 00d4 01400040 		.word	1073758209
 299 00d8 A2430040 		.word	1073759138
 300              		.cfi_endproc
 301              	.LFE5:
 302              		.size	ClockSetup, .-ClockSetup
 303              		.section	.text.CYMEMZERO,"ax",%progbits
 304              		.align	2
 305              		.thumb
 306              		.thumb_func
 307              		.type	CYMEMZERO, %function
 308              	CYMEMZERO:
 309              	.LFB0:
  63:.\Generated_Source\PSoC5/cyfitter_cfg.c **** 	(void)memset(s, 0, n);
 310              		.loc 1 63 0
 311              		.cfi_startproc
 312              		@ args = 0, pretend = 0, frame = 0
 313              		@ frame_needed = 0, uses_anonymous_args = 0
 314              	.LVL22:
 315 0000 08B5     		push	{r3, lr}
 316              		.cfi_def_cfa_offset 8
 317              		.cfi_offset 3, -8
 318              		.cfi_offset 14, -4
ARM GAS  C:\Users\lenovo\AppData\Local\Temp\ccs658DT.s 			page 12


 319 0002 0A46     		mov	r2, r1
  64:.\Generated_Source\PSoC5/cyfitter_cfg.c **** }
 320              		.loc 1 64 0
 321 0004 0021     		movs	r1, #0
 322              	.LVL23:
 323 0006 FFF7FEFF 		bl	memset
 324              	.LVL24:
 325 000a 08BD     		pop	{r3, pc}
 326              		.cfi_endproc
 327              	.LFE0:
 328              		.size	CYMEMZERO, .-CYMEMZERO
 329              		.section	.text.CYCONFIGCPY,"ax",%progbits
 330              		.align	2
 331              		.thumb
 332              		.thumb_func
 333              		.type	CYCONFIGCPY, %function
 334              	CYCONFIGCPY:
 335              	.LFB1:
  70:.\Generated_Source\PSoC5/cyfitter_cfg.c **** 	(void)memcpy(dest, src, n);
 336              		.loc 1 70 0
 337              		.cfi_startproc
 338              		@ args = 0, pretend = 0, frame = 0
 339              		@ frame_needed = 0, uses_anonymous_args = 0
 340              	.LVL25:
 341 0000 08B5     		push	{r3, lr}
 342              		.cfi_def_cfa_offset 8
 343              		.cfi_offset 3, -8
 344              		.cfi_offset 14, -4
  71:.\Generated_Source\PSoC5/cyfitter_cfg.c **** }
 345              		.loc 1 71 0
 346 0002 FFF7FEFF 		bl	memcpy
 347              	.LVL26:
 348 0006 08BD     		pop	{r3, pc}
 349              		.cfi_endproc
 350              	.LFE1:
 351              		.size	CYCONFIGCPY, .-CYCONFIGCPY
 352              		.section	.text.SetAnalogRoutingPumps,"ax",%progbits
 353              		.align	2
 354              		.global	SetAnalogRoutingPumps
 355              		.thumb
 356              		.thumb_func
 357              		.type	SetAnalogRoutingPumps, %function
 358              	SetAnalogRoutingPumps:
 359              	.LFB7:
 277:.\Generated_Source\PSoC5/cyfitter_cfg.c **** }
 278:.\Generated_Source\PSoC5/cyfitter_cfg.c **** 
 279:.\Generated_Source\PSoC5/cyfitter_cfg.c **** 
 280:.\Generated_Source\PSoC5/cyfitter_cfg.c **** /*******************************************************************************
 281:.\Generated_Source\PSoC5/cyfitter_cfg.c **** * Function Name: SetAnalogRoutingPumps
 282:.\Generated_Source\PSoC5/cyfitter_cfg.c **** ********************************************************************************
 283:.\Generated_Source\PSoC5/cyfitter_cfg.c **** *
 284:.\Generated_Source\PSoC5/cyfitter_cfg.c **** * Summary:
 285:.\Generated_Source\PSoC5/cyfitter_cfg.c **** * Enables or disables the analog pumps feeding analog routing switches.
 286:.\Generated_Source\PSoC5/cyfitter_cfg.c **** * Intended to be called at startup, based on the Vdda system configuration;
 287:.\Generated_Source\PSoC5/cyfitter_cfg.c **** * may be called during operation when the user informs us that the Vdda voltage
 288:.\Generated_Source\PSoC5/cyfitter_cfg.c **** * crossed the pump threshold.
 289:.\Generated_Source\PSoC5/cyfitter_cfg.c **** *
ARM GAS  C:\Users\lenovo\AppData\Local\Temp\ccs658DT.s 			page 13


 290:.\Generated_Source\PSoC5/cyfitter_cfg.c **** * Parameters:
 291:.\Generated_Source\PSoC5/cyfitter_cfg.c **** *  enabled - 1 to enable the pumps, 0 to disable the pumps
 292:.\Generated_Source\PSoC5/cyfitter_cfg.c **** *
 293:.\Generated_Source\PSoC5/cyfitter_cfg.c **** * Return:
 294:.\Generated_Source\PSoC5/cyfitter_cfg.c **** *  void
 295:.\Generated_Source\PSoC5/cyfitter_cfg.c **** *
 296:.\Generated_Source\PSoC5/cyfitter_cfg.c **** *******************************************************************************/
 297:.\Generated_Source\PSoC5/cyfitter_cfg.c **** void SetAnalogRoutingPumps(uint8 enabled)
 298:.\Generated_Source\PSoC5/cyfitter_cfg.c **** {
 360              		.loc 1 298 0
 361              		.cfi_startproc
 362              		@ args = 0, pretend = 0, frame = 0
 363              		@ frame_needed = 0, uses_anonymous_args = 0
 364              		@ link register save eliminated.
 365              	.LVL27:
 299:.\Generated_Source\PSoC5/cyfitter_cfg.c **** 	uint8 regValue = CY_GET_XTND_REG8((void CYFAR *)CYREG_PUMP_CR0);
 366              		.loc 1 299 0
 367 0000 024A     		ldr	r2, .L25
 368 0002 1378     		ldrb	r3, [r2]	@ zero_extendqisi2
 369 0004 DBB2     		uxtb	r3, r3
 370              	.LVL28:
 300:.\Generated_Source\PSoC5/cyfitter_cfg.c **** 	if (enabled != 0u)
 301:.\Generated_Source\PSoC5/cyfitter_cfg.c **** 	{
 302:.\Generated_Source\PSoC5/cyfitter_cfg.c **** 		regValue |= 0x00u;
 303:.\Generated_Source\PSoC5/cyfitter_cfg.c **** 	}
 304:.\Generated_Source\PSoC5/cyfitter_cfg.c **** 	else
 305:.\Generated_Source\PSoC5/cyfitter_cfg.c **** 	{
 306:.\Generated_Source\PSoC5/cyfitter_cfg.c **** 		regValue &= (uint8)~0x00u;
 307:.\Generated_Source\PSoC5/cyfitter_cfg.c **** 	}
 308:.\Generated_Source\PSoC5/cyfitter_cfg.c **** 	CY_SET_XTND_REG8((void CYFAR *)CYREG_PUMP_CR0, regValue);
 371              		.loc 1 308 0
 372 0006 1370     		strb	r3, [r2]
 373 0008 7047     		bx	lr
 374              	.L26:
 375 000a 00BF     		.align	2
 376              	.L25:
 377 000c 76580040 		.word	1073764470
 378              		.cfi_endproc
 379              	.LFE7:
 380              		.size	SetAnalogRoutingPumps, .-SetAnalogRoutingPumps
 381              		.section	.text.cyfitter_cfg,"ax",%progbits
 382              		.align	2
 383              		.global	cyfitter_cfg
 384              		.thumb
 385              		.thumb_func
 386              		.type	cyfitter_cfg, %function
 387              	cyfitter_cfg:
 388              	.LFB8:
 309:.\Generated_Source\PSoC5/cyfitter_cfg.c **** }
 310:.\Generated_Source\PSoC5/cyfitter_cfg.c **** 
 311:.\Generated_Source\PSoC5/cyfitter_cfg.c **** #define CY_AMUX_UNUSED CYREG_BOOST_SR
 312:.\Generated_Source\PSoC5/cyfitter_cfg.c **** 
 313:.\Generated_Source\PSoC5/cyfitter_cfg.c **** 
 314:.\Generated_Source\PSoC5/cyfitter_cfg.c **** /*******************************************************************************
 315:.\Generated_Source\PSoC5/cyfitter_cfg.c **** * Function Name: cyfitter_cfg
 316:.\Generated_Source\PSoC5/cyfitter_cfg.c **** ********************************************************************************
 317:.\Generated_Source\PSoC5/cyfitter_cfg.c **** * Summary:
ARM GAS  C:\Users\lenovo\AppData\Local\Temp\ccs658DT.s 			page 14


 318:.\Generated_Source\PSoC5/cyfitter_cfg.c **** *  This function is called by the start-up code for the selected device. It
 319:.\Generated_Source\PSoC5/cyfitter_cfg.c **** *  performs all of the necessary device configuration based on the design
 320:.\Generated_Source\PSoC5/cyfitter_cfg.c **** *  settings.  This includes settings from the Design Wide Resources (DWR) such
 321:.\Generated_Source\PSoC5/cyfitter_cfg.c **** *  as Clocks and Pins as well as any component configuration that is necessary.
 322:.\Generated_Source\PSoC5/cyfitter_cfg.c **** *
 323:.\Generated_Source\PSoC5/cyfitter_cfg.c **** * Parameters:  
 324:.\Generated_Source\PSoC5/cyfitter_cfg.c **** *   void
 325:.\Generated_Source\PSoC5/cyfitter_cfg.c **** *
 326:.\Generated_Source\PSoC5/cyfitter_cfg.c **** * Return:
 327:.\Generated_Source\PSoC5/cyfitter_cfg.c **** *   void
 328:.\Generated_Source\PSoC5/cyfitter_cfg.c **** *
 329:.\Generated_Source\PSoC5/cyfitter_cfg.c **** *******************************************************************************/
 330:.\Generated_Source\PSoC5/cyfitter_cfg.c **** 
 331:.\Generated_Source\PSoC5/cyfitter_cfg.c **** void cyfitter_cfg(void)
 332:.\Generated_Source\PSoC5/cyfitter_cfg.c **** {
 389              		.loc 1 332 0
 390              		.cfi_startproc
 391              		@ args = 0, pretend = 0, frame = 0
 392              		@ frame_needed = 0, uses_anonymous_args = 0
 393 0000 10B5     		push	{r4, lr}
 394              		.cfi_def_cfa_offset 8
 395              		.cfi_offset 4, -8
 396              		.cfi_offset 14, -4
 333:.\Generated_Source\PSoC5/cyfitter_cfg.c **** #ifdef CYGlobalIntDisable
 334:.\Generated_Source\PSoC5/cyfitter_cfg.c **** 	/* Disable interrupts by default. Let user enable if/when they want. */
 335:.\Generated_Source\PSoC5/cyfitter_cfg.c **** 	CYGlobalIntDisable
 397              		.loc 1 335 0
 398              	@ 335 ".\Generated_Source\PSoC5\cyfitter_cfg.c" 1
 399 0002 72B6     		CPSID   i
 400              	@ 0 "" 2
 336:.\Generated_Source\PSoC5/cyfitter_cfg.c **** #endif
 337:.\Generated_Source\PSoC5/cyfitter_cfg.c **** 
 338:.\Generated_Source\PSoC5/cyfitter_cfg.c **** 
 339:.\Generated_Source\PSoC5/cyfitter_cfg.c **** 	/* Set Flash Cycles based on max possible frequency in case a glitch occurs during ClockSetup(). *
 340:.\Generated_Source\PSoC5/cyfitter_cfg.c **** 	CY_SET_XTND_REG8((void CYFAR *)(CYREG_CACHE_CC_CTL), (((CYDEV_INSTRUCT_CACHE_ENABLED) != 0) ? 0x01
 401              		.loc 1 340 0
 402              		.thumb
 403 0004 0122     		movs	r2, #1
 404 0006 304B     		ldr	r3, .L33
 405 0008 1A70     		strb	r2, [r3]
 341:.\Generated_Source\PSoC5/cyfitter_cfg.c **** 	/* Setup clocks based on selections from Clock DWR */
 342:.\Generated_Source\PSoC5/cyfitter_cfg.c **** 	ClockSetup();
 406              		.loc 1 342 0
 407 000a FFF7FEFF 		bl	ClockSetup
 408              	.LVL29:
 343:.\Generated_Source\PSoC5/cyfitter_cfg.c **** 	/* Enable/Disable Debug functionality based on settings from System DWR */
 344:.\Generated_Source\PSoC5/cyfitter_cfg.c **** 	CY_SET_XTND_REG8((void CYFAR *)CYREG_MLOGIC_DEBUG, (CY_GET_XTND_REG8((void CYFAR *)CYREG_MLOGIC_DE
 409              		.loc 1 344 0
 410 000e 2F4A     		ldr	r2, .L33+4
 411 0010 1378     		ldrb	r3, [r2]	@ zero_extendqisi2
 412 0012 43F00403 		orr	r3, r3, #4
 413 0016 1370     		strb	r3, [r2]
 414              	.LVL30:
 415              	.LBB3:
 345:.\Generated_Source\PSoC5/cyfitter_cfg.c **** 
 346:.\Generated_Source\PSoC5/cyfitter_cfg.c **** 	{
 347:.\Generated_Source\PSoC5/cyfitter_cfg.c **** 
ARM GAS  C:\Users\lenovo\AppData\Local\Temp\ccs658DT.s 			page 15


 348:.\Generated_Source\PSoC5/cyfitter_cfg.c **** 		CYPACKED typedef struct {
 349:.\Generated_Source\PSoC5/cyfitter_cfg.c **** 			void CYFAR *address;
 350:.\Generated_Source\PSoC5/cyfitter_cfg.c **** 			uint16 size;
 351:.\Generated_Source\PSoC5/cyfitter_cfg.c **** 		} CYPACKED_ATTR cfg_memset_t;
 352:.\Generated_Source\PSoC5/cyfitter_cfg.c **** 
 353:.\Generated_Source\PSoC5/cyfitter_cfg.c **** 
 354:.\Generated_Source\PSoC5/cyfitter_cfg.c **** 		CYPACKED typedef struct {
 355:.\Generated_Source\PSoC5/cyfitter_cfg.c **** 			void CYFAR *dest;
 356:.\Generated_Source\PSoC5/cyfitter_cfg.c **** 			const void CYFAR *src;
 357:.\Generated_Source\PSoC5/cyfitter_cfg.c **** 			uint16 size;
 358:.\Generated_Source\PSoC5/cyfitter_cfg.c **** 		} CYPACKED_ATTR cfg_memcpy_t;
 359:.\Generated_Source\PSoC5/cyfitter_cfg.c **** 
 360:.\Generated_Source\PSoC5/cyfitter_cfg.c **** 		static const cfg_memset_t CYCODE cfg_memset_list [] = {
 361:.\Generated_Source\PSoC5/cyfitter_cfg.c **** 			/* address, size */
 362:.\Generated_Source\PSoC5/cyfitter_cfg.c **** 			{(void CYFAR *)(CYREG_PRT0_DR), 16u},
 363:.\Generated_Source\PSoC5/cyfitter_cfg.c **** 			{(void CYFAR *)(CYREG_PRT2_DR), 32u},
 364:.\Generated_Source\PSoC5/cyfitter_cfg.c **** 			{(void CYFAR *)(CYREG_PRT5_DR), 32u},
 365:.\Generated_Source\PSoC5/cyfitter_cfg.c **** 			{(void CYFAR *)(CYREG_PRT12_DR), 16u},
 366:.\Generated_Source\PSoC5/cyfitter_cfg.c **** 			{(void CYFAR *)(CYREG_PRT15_DR), 16u},
 367:.\Generated_Source\PSoC5/cyfitter_cfg.c **** 			{(void CYFAR *)(CYDEV_UCFG_B0_P0_U0_BASE), 128u},
 368:.\Generated_Source\PSoC5/cyfitter_cfg.c **** 			{(void CYFAR *)(CYDEV_UCFG_B0_P0_ROUTE_BASE), 768u},
 369:.\Generated_Source\PSoC5/cyfitter_cfg.c **** 			{(void CYFAR *)(CYDEV_UCFG_B0_P2_U1_BASE), 2944u},
 370:.\Generated_Source\PSoC5/cyfitter_cfg.c **** 			{(void CYFAR *)(CYDEV_UCFG_B1_P2_U0_BASE), 2048u},
 371:.\Generated_Source\PSoC5/cyfitter_cfg.c **** 			{(void CYFAR *)(CYDEV_UCFG_DSI0_BASE), 2560u},
 372:.\Generated_Source\PSoC5/cyfitter_cfg.c **** 			{(void CYFAR *)(CYDEV_UCFG_DSI12_BASE), 512u},
 373:.\Generated_Source\PSoC5/cyfitter_cfg.c **** 			{(void CYFAR *)(CYREG_BCTL0_MDCLK_EN), 32u},
 374:.\Generated_Source\PSoC5/cyfitter_cfg.c **** 		};
 375:.\Generated_Source\PSoC5/cyfitter_cfg.c **** 
 376:.\Generated_Source\PSoC5/cyfitter_cfg.c **** 		static const cfg_memcpy_t CYCODE cfg_memcpy_list [] = {
 377:.\Generated_Source\PSoC5/cyfitter_cfg.c **** 			/* dest, src, size */
 378:.\Generated_Source\PSoC5/cyfitter_cfg.c **** 			{(void CYFAR *)(CYDEV_UCFG_B0_P0_U1_BASE), BS_UDB_1_5_1_CONFIG_VAL, 128u},
 379:.\Generated_Source\PSoC5/cyfitter_cfg.c **** 			{(void CYFAR *)(CYDEV_UCFG_B0_P2_U0_BASE), BS_UDB_1_3_0_CONFIG_VAL, 128u},
 380:.\Generated_Source\PSoC5/cyfitter_cfg.c **** 		};
 381:.\Generated_Source\PSoC5/cyfitter_cfg.c **** 
 382:.\Generated_Source\PSoC5/cyfitter_cfg.c **** 		uint8 CYDATA i;
 383:.\Generated_Source\PSoC5/cyfitter_cfg.c **** 
 384:.\Generated_Source\PSoC5/cyfitter_cfg.c **** 		/* Zero out critical memory blocks before beginning configuration */
 385:.\Generated_Source\PSoC5/cyfitter_cfg.c **** 		for (i = 0u; i < (sizeof(cfg_memset_list)/sizeof(cfg_memset_list[0])); i++)
 416              		.loc 1 385 0
 417 0018 0024     		movs	r4, #0
 418 001a 0CE0     		b	.L28
 419              	.LVL31:
 420              	.L29:
 421              	.LBB4:
 386:.\Generated_Source\PSoC5/cyfitter_cfg.c **** 		{
 387:.\Generated_Source\PSoC5/cyfitter_cfg.c **** 			const cfg_memset_t CYCODE * CYDATA ms = &cfg_memset_list[i];
 388:.\Generated_Source\PSoC5/cyfitter_cfg.c **** 			CYMEMZERO(ms->address, (size_t)(uint32)(ms->size));
 422              		.loc 1 388 0 discriminator 3
 423 001c 2C49     		ldr	r1, .L33+8
 424 001e 6300     		lsls	r3, r4, #1
 425 0020 1A19     		adds	r2, r3, r4
 426 0022 5200     		lsls	r2, r2, #1
 427 0024 0A44     		add	r2, r2, r1
 428 0026 2344     		add	r3, r3, r4
 429 0028 5B00     		lsls	r3, r3, #1
 430 002a C858     		ldr	r0, [r1, r3]	@ unaligned
 431 002c 9188     		ldrh	r1, [r2, #4]
ARM GAS  C:\Users\lenovo\AppData\Local\Temp\ccs658DT.s 			page 16


 432 002e FFF7FEFF 		bl	CYMEMZERO
 433              	.LVL32:
 434              	.LBE4:
 385:.\Generated_Source\PSoC5/cyfitter_cfg.c **** 		{
 435              		.loc 1 385 0 discriminator 3
 436 0032 0134     		adds	r4, r4, #1
 437              	.LVL33:
 438 0034 E4B2     		uxtb	r4, r4
 439              	.LVL34:
 440              	.L28:
 385:.\Generated_Source\PSoC5/cyfitter_cfg.c **** 		{
 441              		.loc 1 385 0 is_stmt 0 discriminator 1
 442 0036 0B2C     		cmp	r4, #11
 443 0038 F0D9     		bls	.L29
 444 003a 0024     		movs	r4, #0
 445              	.LVL35:
 446 003c 10E0     		b	.L30
 447              	.LVL36:
 448              	.L31:
 449              	.LBB5:
 389:.\Generated_Source\PSoC5/cyfitter_cfg.c **** 		}
 390:.\Generated_Source\PSoC5/cyfitter_cfg.c **** 
 391:.\Generated_Source\PSoC5/cyfitter_cfg.c **** 		/* Copy device configuration data into registers */
 392:.\Generated_Source\PSoC5/cyfitter_cfg.c **** 		for (i = 0u; i < (sizeof(cfg_memcpy_list)/sizeof(cfg_memcpy_list[0])); i++)
 393:.\Generated_Source\PSoC5/cyfitter_cfg.c **** 		{
 394:.\Generated_Source\PSoC5/cyfitter_cfg.c **** 			const cfg_memcpy_t CYCODE * CYDATA mc = &cfg_memcpy_list[i];
 395:.\Generated_Source\PSoC5/cyfitter_cfg.c **** 			void * CYDATA destPtr = mc->dest;
 450              		.loc 1 395 0 is_stmt 1 discriminator 3
 451 003e 2449     		ldr	r1, .L33+8
 452 0040 A300     		lsls	r3, r4, #2
 453 0042 1A19     		adds	r2, r3, r4
 454 0044 5200     		lsls	r2, r2, #1
 455 0046 0A44     		add	r2, r2, r1
 456 0048 52F8480F 		ldr	r0, [r2, #72]!	@ unaligned
 457              	.LVL37:
 396:.\Generated_Source\PSoC5/cyfitter_cfg.c **** 			const void * CYDATA srcPtr = mc->src;
 397:.\Generated_Source\PSoC5/cyfitter_cfg.c **** 			uint16 CYDATA numBytes = mc->size;
 458              		.loc 1 397 0 discriminator 3
 459 004c 2344     		add	r3, r3, r4
 460 004e 5B00     		lsls	r3, r3, #1
 461 0050 0B44     		add	r3, r3, r1
 462              	.LVL38:
 398:.\Generated_Source\PSoC5/cyfitter_cfg.c **** 			CYCONFIGCPY(destPtr, srcPtr, numBytes);
 463              		.loc 1 398 0 discriminator 3
 464 0052 5168     		ldr	r1, [r2, #4]	@ unaligned
 465              	.LVL39:
 466 0054 B3F85020 		ldrh	r2, [r3, #80]
 467 0058 FFF7FEFF 		bl	CYCONFIGCPY
 468              	.LVL40:
 469              	.LBE5:
 392:.\Generated_Source\PSoC5/cyfitter_cfg.c **** 		{
 470              		.loc 1 392 0 discriminator 3
 471 005c 0134     		adds	r4, r4, #1
 472              	.LVL41:
 473 005e E4B2     		uxtb	r4, r4
 474              	.LVL42:
 475              	.L30:
ARM GAS  C:\Users\lenovo\AppData\Local\Temp\ccs658DT.s 			page 17


 392:.\Generated_Source\PSoC5/cyfitter_cfg.c **** 		{
 476              		.loc 1 392 0 is_stmt 0 discriminator 1
 477 0060 012C     		cmp	r4, #1
 478 0062 ECD9     		bls	.L31
 399:.\Generated_Source\PSoC5/cyfitter_cfg.c **** 		}
 400:.\Generated_Source\PSoC5/cyfitter_cfg.c **** 
 401:.\Generated_Source\PSoC5/cyfitter_cfg.c **** 		cfg_write_bytes32(cy_cfg_addr_table, cy_cfg_data_table);
 479              		.loc 1 401 0 is_stmt 1
 480 0064 4FF09040 		mov	r0, #1207959552
 481 0068 1A49     		ldr	r1, .L33+12
 482 006a FFF7FEFF 		bl	cfg_write_bytes32
 483              	.LVL43:
 402:.\Generated_Source\PSoC5/cyfitter_cfg.c **** 
 403:.\Generated_Source\PSoC5/cyfitter_cfg.c **** 		/* Enable digital routing */
 404:.\Generated_Source\PSoC5/cyfitter_cfg.c **** 		CY_SET_XTND_REG8((void CYFAR *)CYREG_BCTL0_BANK_CTL, CY_GET_XTND_REG8((void CYFAR *)CYREG_BCTL0_B
 484              		.loc 1 404 0
 485 006e 1A4A     		ldr	r2, .L33+16
 486 0070 1378     		ldrb	r3, [r2]	@ zero_extendqisi2
 487 0072 43F00203 		orr	r3, r3, #2
 488 0076 1370     		strb	r3, [r2]
 405:.\Generated_Source\PSoC5/cyfitter_cfg.c **** 		CY_SET_XTND_REG8((void CYFAR *)CYREG_BCTL1_BANK_CTL, CY_GET_XTND_REG8((void CYFAR *)CYREG_BCTL1_B
 489              		.loc 1 405 0
 490 0078 1032     		adds	r2, r2, #16
 491 007a 1378     		ldrb	r3, [r2]	@ zero_extendqisi2
 492 007c 43F00203 		orr	r3, r3, #2
 493 0080 1370     		strb	r3, [r2]
 406:.\Generated_Source\PSoC5/cyfitter_cfg.c **** 
 407:.\Generated_Source\PSoC5/cyfitter_cfg.c **** 		/* Enable UDB array */
 408:.\Generated_Source\PSoC5/cyfitter_cfg.c **** 		CY_SET_XTND_REG8((void CYFAR *)CYREG_PM_ACT_CFG0, CY_GET_XTND_REG8((void CYFAR *)CYREG_PM_ACT_CFG
 494              		.loc 1 408 0
 495 0082 164C     		ldr	r4, .L33+20
 496              	.LVL44:
 497 0084 2378     		ldrb	r3, [r4]	@ zero_extendqisi2
 498 0086 43F04003 		orr	r3, r3, #64
 499 008a 2370     		strb	r3, [r4]
 409:.\Generated_Source\PSoC5/cyfitter_cfg.c **** 		CY_SET_XTND_REG8((void CYFAR *)CYREG_PM_AVAIL_CR2, CY_GET_XTND_REG8((void CYFAR *)CYREG_PM_AVAIL_
 500              		.loc 1 409 0
 501 008c A2F58632 		sub	r2, r2, #68608
 502 0090 513A     		subs	r2, r2, #81
 503 0092 1378     		ldrb	r3, [r2]	@ zero_extendqisi2
 504 0094 43F01003 		orr	r3, r3, #16
 505 0098 1370     		strb	r3, [r2]
 506              	.LBE3:
 410:.\Generated_Source\PSoC5/cyfitter_cfg.c **** 	}
 411:.\Generated_Source\PSoC5/cyfitter_cfg.c **** 
 412:.\Generated_Source\PSoC5/cyfitter_cfg.c **** 
 413:.\Generated_Source\PSoC5/cyfitter_cfg.c **** 	/* Perform second pass device configuration. These items must be configured in specific order afte
 414:.\Generated_Source\PSoC5/cyfitter_cfg.c **** 	CYCONFIGCPY((void CYFAR *)(CYREG_PRT1_DM0), (const void CYFAR *)(BS_IOPINS0_1_VAL), 8u);
 507              		.loc 1 414 0
 508 009a 1148     		ldr	r0, .L33+24
 509 009c 1149     		ldr	r1, .L33+28
 510 009e 0822     		movs	r2, #8
 511 00a0 FFF7FEFF 		bl	CYCONFIGCPY
 512              	.LVL45:
 415:.\Generated_Source\PSoC5/cyfitter_cfg.c **** 	CYCONFIGCPY((void CYFAR *)(CYREG_PRT4_DR), (const void CYFAR *)(BS_IOPINS0_4_VAL), 10u);
 513              		.loc 1 415 0
 514 00a4 1048     		ldr	r0, .L33+32
ARM GAS  C:\Users\lenovo\AppData\Local\Temp\ccs658DT.s 			page 18


 515 00a6 1149     		ldr	r1, .L33+36
 516 00a8 0A22     		movs	r2, #10
 517 00aa FFF7FEFF 		bl	CYCONFIGCPY
 518              	.LVL46:
 416:.\Generated_Source\PSoC5/cyfitter_cfg.c **** 	/* Switch Boost to the precision bandgap reference from its internal reference */
 417:.\Generated_Source\PSoC5/cyfitter_cfg.c **** 	CY_SET_REG8((void CYXDATA *)CYREG_BOOST_CR2, (CY_GET_REG8((void CYXDATA *)CYREG_BOOST_CR2) | 0x08u
 519              		.loc 1 417 0
 520 00ae 104A     		ldr	r2, .L33+40
 521 00b0 1378     		ldrb	r3, [r2]	@ zero_extendqisi2
 522 00b2 43F00803 		orr	r3, r3, #8
 523 00b6 1370     		strb	r3, [r2]
 418:.\Generated_Source\PSoC5/cyfitter_cfg.c **** 
 419:.\Generated_Source\PSoC5/cyfitter_cfg.c **** 	/* Perform basic analog initialization to defaults */
 420:.\Generated_Source\PSoC5/cyfitter_cfg.c **** 	AnalogSetDefault();
 524              		.loc 1 420 0
 525 00b8 FFF7FEFF 		bl	AnalogSetDefault
 526              	.LVL47:
 421:.\Generated_Source\PSoC5/cyfitter_cfg.c **** 
 422:.\Generated_Source\PSoC5/cyfitter_cfg.c **** 	/* Configure alternate active mode */
 423:.\Generated_Source\PSoC5/cyfitter_cfg.c **** 	CYCONFIGCPY((void CYFAR *)CYDEV_PM_STBY_BASE, (const void CYFAR *)CYDEV_PM_ACT_BASE, 14u);
 527              		.loc 1 423 0
 528 00bc 0D48     		ldr	r0, .L33+44
 529 00be 2146     		mov	r1, r4
 530 00c0 0E22     		movs	r2, #14
 531 00c2 FFF7FEFF 		bl	CYCONFIGCPY
 532              	.LVL48:
 533 00c6 10BD     		pop	{r4, pc}
 534              	.L34:
 535              		.align	2
 536              	.L33:
 537 00c8 00480040 		.word	1073760256
 538 00cc E8460040 		.word	1073759976
 539 00d0 00000000 		.word	.LANCHOR0
 540 00d4 64000048 		.word	1207959652
 541 00d8 03500140 		.word	1073827843
 542 00dc A0430040 		.word	1073759136
 543 00e0 12510040 		.word	1073762578
 544 00e4 D0060048 		.word	1207961296
 545 00e8 40510040 		.word	1073762624
 546 00ec D8060048 		.word	1207961304
 547 00f0 22430040 		.word	1073759010
 548 00f4 B0430040 		.word	1073759152
 549              		.cfi_endproc
 550              	.LFE8:
 551              		.size	cyfitter_cfg, .-cyfitter_cfg
 552              		.section	.rodata
 553              		.align	2
 554              		.set	.LANCHOR0,. + 0
 555              		.type	cfg_memset_list.4885, %object
 556              		.size	cfg_memset_list.4885, 72
 557              	cfg_memset_list.4885:
 558 0000 00510040 		.word	1073762560
 559 0004 1000     		.short	16
 560 0006 20510040 		.4byte	1073762592
 561 000a 2000     		.short	32
 562 000c 50510040 		.word	1073762640
 563 0010 2000     		.short	32
ARM GAS  C:\Users\lenovo\AppData\Local\Temp\ccs658DT.s 			page 19


 564 0012 C0510040 		.4byte	1073762752
 565 0016 1000     		.short	16
 566 0018 F0510040 		.word	1073762800
 567 001c 1000     		.short	16
 568 001e 00000140 		.4byte	1073807360
 569 0022 8000     		.short	128
 570 0024 00010140 		.word	1073807616
 571 0028 0003     		.short	768
 572 002a 80040140 		.4byte	1073808512
 573 002e 800B     		.short	2944
 574 0030 00140140 		.word	1073812480
 575 0034 0008     		.short	2048
 576 0036 00400140 		.4byte	1073823744
 577 003a 000A     		.short	2560
 578 003c 004C0140 		.word	1073826816
 579 0040 0002     		.short	512
 580 0042 00500140 		.4byte	1073827840
 581 0046 2000     		.short	32
 582              		.type	cfg_memcpy_list.4886, %object
 583              		.size	cfg_memcpy_list.4886, 20
 584              	cfg_memcpy_list.4886:
 585 0048 80000140 		.word	1073807488
 586 004c D0050048 		.word	1207961040
 587 0050 8000     		.short	128
 588 0052 00040140 		.4byte	1073808384
 589 0056 50060048 		.4byte	1207961168
 590 005a 8000     		.short	128
 591              		.text
 592              	.Letext0:
 593              		.file 2 "c:\\program files (x86)\\cypress\\psoc creator\\3.3\\psoc creator\\import\\gnu\\arm\\4.9.
 594              		.file 3 ".\\Generated_Source\\PSoC5\\cytypes.h"
 595              		.file 4 ".\\Generated_Source\\PSoC5\\CyLib.h"