ARM GAS  C:\Users\lenovo\AppData\Local\Temp\ccSKfcxi.s 			page 1


   1              		.syntax unified
   2              		.cpu cortex-m3
   3              		.fpu softvfp
   4              		.eabi_attribute 20, 1
   5              		.eabi_attribute 21, 1
   6              		.eabi_attribute 23, 3
   7              		.eabi_attribute 24, 1
   8              		.eabi_attribute 25, 1
   9              		.eabi_attribute 26, 1
  10              		.eabi_attribute 30, 1
  11              		.eabi_attribute 34, 1
  12              		.eabi_attribute 18, 4
  13              		.thumb
  14              		.file	"isr_rx.c"
  15              		.text
  16              	.Ltext0:
  17              		.cfi_sections	.debug_frame
  18              		.section	.text.isr_rx_SetVector,"ax",%progbits
  19              		.align	2
  20              		.global	isr_rx_SetVector
  21              		.thumb
  22              		.thumb_func
  23              		.type	isr_rx_SetVector, %function
  24              	isr_rx_SetVector:
  25              	.LFB66:
  26              		.file 1 ".\\Generated_Source\\PSoC5\\isr_rx.c"
   1:.\Generated_Source\PSoC5/isr_rx.c **** /*******************************************************************************
   2:.\Generated_Source\PSoC5/isr_rx.c **** * File Name: isr_rx.c  
   3:.\Generated_Source\PSoC5/isr_rx.c **** * Version 1.70
   4:.\Generated_Source\PSoC5/isr_rx.c **** *
   5:.\Generated_Source\PSoC5/isr_rx.c **** *  Description:
   6:.\Generated_Source\PSoC5/isr_rx.c **** *   API for controlling the state of an interrupt.
   7:.\Generated_Source\PSoC5/isr_rx.c **** *
   8:.\Generated_Source\PSoC5/isr_rx.c **** *
   9:.\Generated_Source\PSoC5/isr_rx.c **** *  Note:
  10:.\Generated_Source\PSoC5/isr_rx.c **** *
  11:.\Generated_Source\PSoC5/isr_rx.c **** ********************************************************************************
  12:.\Generated_Source\PSoC5/isr_rx.c **** * Copyright 2008-2015, Cypress Semiconductor Corporation.  All rights reserved.
  13:.\Generated_Source\PSoC5/isr_rx.c **** * You may use this file only in accordance with the license, terms, conditions, 
  14:.\Generated_Source\PSoC5/isr_rx.c **** * disclaimers, and limitations in the end user license agreement accompanying 
  15:.\Generated_Source\PSoC5/isr_rx.c **** * the software package with which this file was provided.
  16:.\Generated_Source\PSoC5/isr_rx.c **** *******************************************************************************/
  17:.\Generated_Source\PSoC5/isr_rx.c **** 
  18:.\Generated_Source\PSoC5/isr_rx.c **** 
  19:.\Generated_Source\PSoC5/isr_rx.c **** #include <cydevice_trm.h>
  20:.\Generated_Source\PSoC5/isr_rx.c **** #include <CyLib.h>
  21:.\Generated_Source\PSoC5/isr_rx.c **** #include <isr_rx.h>
  22:.\Generated_Source\PSoC5/isr_rx.c **** #include "cyapicallbacks.h"
  23:.\Generated_Source\PSoC5/isr_rx.c **** 
  24:.\Generated_Source\PSoC5/isr_rx.c **** #if !defined(isr_rx__REMOVED) /* Check for removal by optimization */
  25:.\Generated_Source\PSoC5/isr_rx.c **** 
  26:.\Generated_Source\PSoC5/isr_rx.c **** /*******************************************************************************
  27:.\Generated_Source\PSoC5/isr_rx.c **** *  Place your includes, defines and code here 
  28:.\Generated_Source\PSoC5/isr_rx.c **** ********************************************************************************/
  29:.\Generated_Source\PSoC5/isr_rx.c **** /* `#START isr_rx_intc` */
  30:.\Generated_Source\PSoC5/isr_rx.c **** 
  31:.\Generated_Source\PSoC5/isr_rx.c **** /* `#END` */
ARM GAS  C:\Users\lenovo\AppData\Local\Temp\ccSKfcxi.s 			page 2


  32:.\Generated_Source\PSoC5/isr_rx.c **** 
  33:.\Generated_Source\PSoC5/isr_rx.c **** #ifndef CYINT_IRQ_BASE
  34:.\Generated_Source\PSoC5/isr_rx.c **** #define CYINT_IRQ_BASE      16
  35:.\Generated_Source\PSoC5/isr_rx.c **** #endif /* CYINT_IRQ_BASE */
  36:.\Generated_Source\PSoC5/isr_rx.c **** #ifndef CYINT_VECT_TABLE
  37:.\Generated_Source\PSoC5/isr_rx.c **** #define CYINT_VECT_TABLE    ((cyisraddress **) CYREG_NVIC_VECT_OFFSET)
  38:.\Generated_Source\PSoC5/isr_rx.c **** #endif /* CYINT_VECT_TABLE */
  39:.\Generated_Source\PSoC5/isr_rx.c **** 
  40:.\Generated_Source\PSoC5/isr_rx.c **** /* Declared in startup, used to set unused interrupts to. */
  41:.\Generated_Source\PSoC5/isr_rx.c **** CY_ISR_PROTO(IntDefaultHandler);
  42:.\Generated_Source\PSoC5/isr_rx.c **** 
  43:.\Generated_Source\PSoC5/isr_rx.c **** 
  44:.\Generated_Source\PSoC5/isr_rx.c **** /*******************************************************************************
  45:.\Generated_Source\PSoC5/isr_rx.c **** * Function Name: isr_rx_Start
  46:.\Generated_Source\PSoC5/isr_rx.c **** ********************************************************************************
  47:.\Generated_Source\PSoC5/isr_rx.c **** *
  48:.\Generated_Source\PSoC5/isr_rx.c **** * Summary:
  49:.\Generated_Source\PSoC5/isr_rx.c **** *  Set up the interrupt and enable it. This function disables the interrupt, 
  50:.\Generated_Source\PSoC5/isr_rx.c **** *  sets the default interrupt vector, sets the priority from the value in the
  51:.\Generated_Source\PSoC5/isr_rx.c **** *  Design Wide Resources Interrupt Editor, then enables the interrupt to the 
  52:.\Generated_Source\PSoC5/isr_rx.c **** *  interrupt controller.
  53:.\Generated_Source\PSoC5/isr_rx.c **** *
  54:.\Generated_Source\PSoC5/isr_rx.c **** * Parameters:  
  55:.\Generated_Source\PSoC5/isr_rx.c **** *   None
  56:.\Generated_Source\PSoC5/isr_rx.c **** *
  57:.\Generated_Source\PSoC5/isr_rx.c **** * Return:
  58:.\Generated_Source\PSoC5/isr_rx.c **** *   None
  59:.\Generated_Source\PSoC5/isr_rx.c **** *
  60:.\Generated_Source\PSoC5/isr_rx.c **** *******************************************************************************/
  61:.\Generated_Source\PSoC5/isr_rx.c **** void isr_rx_Start(void)
  62:.\Generated_Source\PSoC5/isr_rx.c **** {
  63:.\Generated_Source\PSoC5/isr_rx.c ****     /* For all we know the interrupt is active. */
  64:.\Generated_Source\PSoC5/isr_rx.c ****     isr_rx_Disable();
  65:.\Generated_Source\PSoC5/isr_rx.c **** 
  66:.\Generated_Source\PSoC5/isr_rx.c ****     /* Set the ISR to point to the isr_rx Interrupt. */
  67:.\Generated_Source\PSoC5/isr_rx.c ****     isr_rx_SetVector(&isr_rx_Interrupt);
  68:.\Generated_Source\PSoC5/isr_rx.c **** 
  69:.\Generated_Source\PSoC5/isr_rx.c ****     /* Set the priority. */
  70:.\Generated_Source\PSoC5/isr_rx.c ****     isr_rx_SetPriority((uint8)isr_rx_INTC_PRIOR_NUMBER);
  71:.\Generated_Source\PSoC5/isr_rx.c **** 
  72:.\Generated_Source\PSoC5/isr_rx.c ****     /* Enable it. */
  73:.\Generated_Source\PSoC5/isr_rx.c ****     isr_rx_Enable();
  74:.\Generated_Source\PSoC5/isr_rx.c **** }
  75:.\Generated_Source\PSoC5/isr_rx.c **** 
  76:.\Generated_Source\PSoC5/isr_rx.c **** 
  77:.\Generated_Source\PSoC5/isr_rx.c **** /*******************************************************************************
  78:.\Generated_Source\PSoC5/isr_rx.c **** * Function Name: isr_rx_StartEx
  79:.\Generated_Source\PSoC5/isr_rx.c **** ********************************************************************************
  80:.\Generated_Source\PSoC5/isr_rx.c **** *
  81:.\Generated_Source\PSoC5/isr_rx.c **** * Summary:
  82:.\Generated_Source\PSoC5/isr_rx.c **** *  Sets up the interrupt and enables it. This function disables the interrupt,
  83:.\Generated_Source\PSoC5/isr_rx.c **** *  sets the interrupt vector based on the address passed in, sets the priority 
  84:.\Generated_Source\PSoC5/isr_rx.c **** *  from the value in the Design Wide Resources Interrupt Editor, then enables 
  85:.\Generated_Source\PSoC5/isr_rx.c **** *  the interrupt to the interrupt controller.
  86:.\Generated_Source\PSoC5/isr_rx.c **** *  
  87:.\Generated_Source\PSoC5/isr_rx.c **** *  When defining ISR functions, the CY_ISR and CY_ISR_PROTO macros should be 
  88:.\Generated_Source\PSoC5/isr_rx.c **** *  used to provide consistent definition across compilers:
ARM GAS  C:\Users\lenovo\AppData\Local\Temp\ccSKfcxi.s 			page 3


  89:.\Generated_Source\PSoC5/isr_rx.c **** *  
  90:.\Generated_Source\PSoC5/isr_rx.c **** *  Function definition example:
  91:.\Generated_Source\PSoC5/isr_rx.c **** *   CY_ISR(MyISR)
  92:.\Generated_Source\PSoC5/isr_rx.c **** *   {
  93:.\Generated_Source\PSoC5/isr_rx.c **** *   }
  94:.\Generated_Source\PSoC5/isr_rx.c **** *   Function prototype example:
  95:.\Generated_Source\PSoC5/isr_rx.c **** *   CY_ISR_PROTO(MyISR);
  96:.\Generated_Source\PSoC5/isr_rx.c **** *
  97:.\Generated_Source\PSoC5/isr_rx.c **** * Parameters:  
  98:.\Generated_Source\PSoC5/isr_rx.c **** *   address: Address of the ISR to set in the interrupt vector table.
  99:.\Generated_Source\PSoC5/isr_rx.c **** *
 100:.\Generated_Source\PSoC5/isr_rx.c **** * Return:
 101:.\Generated_Source\PSoC5/isr_rx.c **** *   None
 102:.\Generated_Source\PSoC5/isr_rx.c **** *
 103:.\Generated_Source\PSoC5/isr_rx.c **** *******************************************************************************/
 104:.\Generated_Source\PSoC5/isr_rx.c **** void isr_rx_StartEx(cyisraddress address)
 105:.\Generated_Source\PSoC5/isr_rx.c **** {
 106:.\Generated_Source\PSoC5/isr_rx.c ****     /* For all we know the interrupt is active. */
 107:.\Generated_Source\PSoC5/isr_rx.c ****     isr_rx_Disable();
 108:.\Generated_Source\PSoC5/isr_rx.c **** 
 109:.\Generated_Source\PSoC5/isr_rx.c ****     /* Set the ISR to point to the isr_rx Interrupt. */
 110:.\Generated_Source\PSoC5/isr_rx.c ****     isr_rx_SetVector(address);
 111:.\Generated_Source\PSoC5/isr_rx.c **** 
 112:.\Generated_Source\PSoC5/isr_rx.c ****     /* Set the priority. */
 113:.\Generated_Source\PSoC5/isr_rx.c ****     isr_rx_SetPriority((uint8)isr_rx_INTC_PRIOR_NUMBER);
 114:.\Generated_Source\PSoC5/isr_rx.c **** 
 115:.\Generated_Source\PSoC5/isr_rx.c ****     /* Enable it. */
 116:.\Generated_Source\PSoC5/isr_rx.c ****     isr_rx_Enable();
 117:.\Generated_Source\PSoC5/isr_rx.c **** }
 118:.\Generated_Source\PSoC5/isr_rx.c **** 
 119:.\Generated_Source\PSoC5/isr_rx.c **** 
 120:.\Generated_Source\PSoC5/isr_rx.c **** /*******************************************************************************
 121:.\Generated_Source\PSoC5/isr_rx.c **** * Function Name: isr_rx_Stop
 122:.\Generated_Source\PSoC5/isr_rx.c **** ********************************************************************************
 123:.\Generated_Source\PSoC5/isr_rx.c **** *
 124:.\Generated_Source\PSoC5/isr_rx.c **** * Summary:
 125:.\Generated_Source\PSoC5/isr_rx.c **** *   Disables and removes the interrupt.
 126:.\Generated_Source\PSoC5/isr_rx.c **** *
 127:.\Generated_Source\PSoC5/isr_rx.c **** * Parameters:  
 128:.\Generated_Source\PSoC5/isr_rx.c **** *   None
 129:.\Generated_Source\PSoC5/isr_rx.c **** *
 130:.\Generated_Source\PSoC5/isr_rx.c **** * Return:
 131:.\Generated_Source\PSoC5/isr_rx.c **** *   None
 132:.\Generated_Source\PSoC5/isr_rx.c **** *
 133:.\Generated_Source\PSoC5/isr_rx.c **** *******************************************************************************/
 134:.\Generated_Source\PSoC5/isr_rx.c **** void isr_rx_Stop(void)
 135:.\Generated_Source\PSoC5/isr_rx.c **** {
 136:.\Generated_Source\PSoC5/isr_rx.c ****     /* Disable this interrupt. */
 137:.\Generated_Source\PSoC5/isr_rx.c ****     isr_rx_Disable();
 138:.\Generated_Source\PSoC5/isr_rx.c **** 
 139:.\Generated_Source\PSoC5/isr_rx.c ****     /* Set the ISR to point to the passive one. */
 140:.\Generated_Source\PSoC5/isr_rx.c ****     isr_rx_SetVector(&IntDefaultHandler);
 141:.\Generated_Source\PSoC5/isr_rx.c **** }
 142:.\Generated_Source\PSoC5/isr_rx.c **** 
 143:.\Generated_Source\PSoC5/isr_rx.c **** 
 144:.\Generated_Source\PSoC5/isr_rx.c **** /*******************************************************************************
 145:.\Generated_Source\PSoC5/isr_rx.c **** * Function Name: isr_rx_Interrupt
ARM GAS  C:\Users\lenovo\AppData\Local\Temp\ccSKfcxi.s 			page 4


 146:.\Generated_Source\PSoC5/isr_rx.c **** ********************************************************************************
 147:.\Generated_Source\PSoC5/isr_rx.c **** *
 148:.\Generated_Source\PSoC5/isr_rx.c **** * Summary:
 149:.\Generated_Source\PSoC5/isr_rx.c **** *   The default Interrupt Service Routine for isr_rx.
 150:.\Generated_Source\PSoC5/isr_rx.c **** *
 151:.\Generated_Source\PSoC5/isr_rx.c **** *   Add custom code between the coments to keep the next version of this file
 152:.\Generated_Source\PSoC5/isr_rx.c **** *   from over writting your code.
 153:.\Generated_Source\PSoC5/isr_rx.c **** *
 154:.\Generated_Source\PSoC5/isr_rx.c **** * Parameters:  
 155:.\Generated_Source\PSoC5/isr_rx.c **** *
 156:.\Generated_Source\PSoC5/isr_rx.c **** * Return:
 157:.\Generated_Source\PSoC5/isr_rx.c **** *   None
 158:.\Generated_Source\PSoC5/isr_rx.c **** *
 159:.\Generated_Source\PSoC5/isr_rx.c **** *******************************************************************************/
 160:.\Generated_Source\PSoC5/isr_rx.c **** 
 161:.\Generated_Source\PSoC5/isr_rx.c **** 
 162:.\Generated_Source\PSoC5/isr_rx.c **** 
 163:.\Generated_Source\PSoC5/isr_rx.c **** /*******************************************************************************
 164:.\Generated_Source\PSoC5/isr_rx.c **** * Function Name: isr_rx_SetVector
 165:.\Generated_Source\PSoC5/isr_rx.c **** ********************************************************************************
 166:.\Generated_Source\PSoC5/isr_rx.c **** *
 167:.\Generated_Source\PSoC5/isr_rx.c **** * Summary:
 168:.\Generated_Source\PSoC5/isr_rx.c **** *   Change the ISR vector for the Interrupt. Note calling isr_rx_Start
 169:.\Generated_Source\PSoC5/isr_rx.c **** *   will override any effect this method would have had. To set the vector 
 170:.\Generated_Source\PSoC5/isr_rx.c **** *   before the component has been started use isr_rx_StartEx instead.
 171:.\Generated_Source\PSoC5/isr_rx.c **** * 
 172:.\Generated_Source\PSoC5/isr_rx.c **** *   When defining ISR functions, the CY_ISR and CY_ISR_PROTO macros should be 
 173:.\Generated_Source\PSoC5/isr_rx.c **** *   used to provide consistent definition across compilers:
 174:.\Generated_Source\PSoC5/isr_rx.c **** *
 175:.\Generated_Source\PSoC5/isr_rx.c **** *   Function definition example:
 176:.\Generated_Source\PSoC5/isr_rx.c **** *   CY_ISR(MyISR)
 177:.\Generated_Source\PSoC5/isr_rx.c **** *   {
 178:.\Generated_Source\PSoC5/isr_rx.c **** *   }
 179:.\Generated_Source\PSoC5/isr_rx.c **** *
 180:.\Generated_Source\PSoC5/isr_rx.c **** *   Function prototype example:
 181:.\Generated_Source\PSoC5/isr_rx.c **** *     CY_ISR_PROTO(MyISR);
 182:.\Generated_Source\PSoC5/isr_rx.c **** *
 183:.\Generated_Source\PSoC5/isr_rx.c **** * Parameters:
 184:.\Generated_Source\PSoC5/isr_rx.c **** *   address: Address of the ISR to set in the interrupt vector table.
 185:.\Generated_Source\PSoC5/isr_rx.c **** *
 186:.\Generated_Source\PSoC5/isr_rx.c **** * Return:
 187:.\Generated_Source\PSoC5/isr_rx.c **** *   None
 188:.\Generated_Source\PSoC5/isr_rx.c **** *
 189:.\Generated_Source\PSoC5/isr_rx.c **** *******************************************************************************/
 190:.\Generated_Source\PSoC5/isr_rx.c **** void isr_rx_SetVector(cyisraddress address)
 191:.\Generated_Source\PSoC5/isr_rx.c **** {
  27              		.loc 1 191 0
  28              		.cfi_startproc
  29              		@ args = 0, pretend = 0, frame = 0
  30              		@ frame_needed = 0, uses_anonymous_args = 0
  31              		@ link register save eliminated.
  32              	.LVL0:
 192:.\Generated_Source\PSoC5/isr_rx.c ****     cyisraddress * ramVectorTable;
 193:.\Generated_Source\PSoC5/isr_rx.c **** 
 194:.\Generated_Source\PSoC5/isr_rx.c ****     ramVectorTable = (cyisraddress *) *CYINT_VECT_TABLE;
  33              		.loc 1 194 0
  34 0000 014B     		ldr	r3, .L2
ARM GAS  C:\Users\lenovo\AppData\Local\Temp\ccSKfcxi.s 			page 5


  35 0002 1B68     		ldr	r3, [r3]
  36              	.LVL1:
 195:.\Generated_Source\PSoC5/isr_rx.c **** 
 196:.\Generated_Source\PSoC5/isr_rx.c ****     ramVectorTable[CYINT_IRQ_BASE + (uint32)isr_rx__INTC_NUMBER] = address;
  37              		.loc 1 196 0
  38 0004 1864     		str	r0, [r3, #64]
  39 0006 7047     		bx	lr
  40              	.L3:
  41              		.align	2
  42              	.L2:
  43 0008 08ED00E0 		.word	-536810232
  44              		.cfi_endproc
  45              	.LFE66:
  46              		.size	isr_rx_SetVector, .-isr_rx_SetVector
  47              		.section	.text.isr_rx_GetVector,"ax",%progbits
  48              		.align	2
  49              		.global	isr_rx_GetVector
  50              		.thumb
  51              		.thumb_func
  52              		.type	isr_rx_GetVector, %function
  53              	isr_rx_GetVector:
  54              	.LFB67:
 197:.\Generated_Source\PSoC5/isr_rx.c **** }
 198:.\Generated_Source\PSoC5/isr_rx.c **** 
 199:.\Generated_Source\PSoC5/isr_rx.c **** 
 200:.\Generated_Source\PSoC5/isr_rx.c **** /*******************************************************************************
 201:.\Generated_Source\PSoC5/isr_rx.c **** * Function Name: isr_rx_GetVector
 202:.\Generated_Source\PSoC5/isr_rx.c **** ********************************************************************************
 203:.\Generated_Source\PSoC5/isr_rx.c **** *
 204:.\Generated_Source\PSoC5/isr_rx.c **** * Summary:
 205:.\Generated_Source\PSoC5/isr_rx.c **** *   Gets the "address" of the current ISR vector for the Interrupt.
 206:.\Generated_Source\PSoC5/isr_rx.c **** *
 207:.\Generated_Source\PSoC5/isr_rx.c **** * Parameters:
 208:.\Generated_Source\PSoC5/isr_rx.c **** *   None
 209:.\Generated_Source\PSoC5/isr_rx.c **** *
 210:.\Generated_Source\PSoC5/isr_rx.c **** * Return:
 211:.\Generated_Source\PSoC5/isr_rx.c **** *   Address of the ISR in the interrupt vector table.
 212:.\Generated_Source\PSoC5/isr_rx.c **** *
 213:.\Generated_Source\PSoC5/isr_rx.c **** *******************************************************************************/
 214:.\Generated_Source\PSoC5/isr_rx.c **** cyisraddress isr_rx_GetVector(void)
 215:.\Generated_Source\PSoC5/isr_rx.c **** {
  55              		.loc 1 215 0
  56              		.cfi_startproc
  57              		@ args = 0, pretend = 0, frame = 0
  58              		@ frame_needed = 0, uses_anonymous_args = 0
  59              		@ link register save eliminated.
 216:.\Generated_Source\PSoC5/isr_rx.c ****     cyisraddress * ramVectorTable;
 217:.\Generated_Source\PSoC5/isr_rx.c **** 
 218:.\Generated_Source\PSoC5/isr_rx.c ****     ramVectorTable = (cyisraddress *) *CYINT_VECT_TABLE;
  60              		.loc 1 218 0
  61 0000 014B     		ldr	r3, .L5
  62 0002 1B68     		ldr	r3, [r3]
  63              	.LVL2:
 219:.\Generated_Source\PSoC5/isr_rx.c **** 
 220:.\Generated_Source\PSoC5/isr_rx.c ****     return ramVectorTable[CYINT_IRQ_BASE + (uint32)isr_rx__INTC_NUMBER];
 221:.\Generated_Source\PSoC5/isr_rx.c **** }
  64              		.loc 1 221 0
ARM GAS  C:\Users\lenovo\AppData\Local\Temp\ccSKfcxi.s 			page 6


  65 0004 186C     		ldr	r0, [r3, #64]
  66 0006 7047     		bx	lr
  67              	.L6:
  68              		.align	2
  69              	.L5:
  70 0008 08ED00E0 		.word	-536810232
  71              		.cfi_endproc
  72              	.LFE67:
  73              		.size	isr_rx_GetVector, .-isr_rx_GetVector
  74              		.section	.text.isr_rx_SetPriority,"ax",%progbits
  75              		.align	2
  76              		.global	isr_rx_SetPriority
  77              		.thumb
  78              		.thumb_func
  79              		.type	isr_rx_SetPriority, %function
  80              	isr_rx_SetPriority:
  81              	.LFB68:
 222:.\Generated_Source\PSoC5/isr_rx.c **** 
 223:.\Generated_Source\PSoC5/isr_rx.c **** 
 224:.\Generated_Source\PSoC5/isr_rx.c **** /*******************************************************************************
 225:.\Generated_Source\PSoC5/isr_rx.c **** * Function Name: isr_rx_SetPriority
 226:.\Generated_Source\PSoC5/isr_rx.c **** ********************************************************************************
 227:.\Generated_Source\PSoC5/isr_rx.c **** *
 228:.\Generated_Source\PSoC5/isr_rx.c **** * Summary:
 229:.\Generated_Source\PSoC5/isr_rx.c **** *   Sets the Priority of the Interrupt. 
 230:.\Generated_Source\PSoC5/isr_rx.c **** *
 231:.\Generated_Source\PSoC5/isr_rx.c **** *   Note calling isr_rx_Start or isr_rx_StartEx will 
 232:.\Generated_Source\PSoC5/isr_rx.c **** *   override any effect this API would have had. This API should only be called
 233:.\Generated_Source\PSoC5/isr_rx.c **** *   after isr_rx_Start or isr_rx_StartEx has been called. 
 234:.\Generated_Source\PSoC5/isr_rx.c **** *   To set the initial priority for the component, use the Design-Wide Resources
 235:.\Generated_Source\PSoC5/isr_rx.c **** *   Interrupt Editor.
 236:.\Generated_Source\PSoC5/isr_rx.c **** *
 237:.\Generated_Source\PSoC5/isr_rx.c **** *   Note This API has no effect on Non-maskable interrupt NMI).
 238:.\Generated_Source\PSoC5/isr_rx.c **** *
 239:.\Generated_Source\PSoC5/isr_rx.c **** * Parameters:
 240:.\Generated_Source\PSoC5/isr_rx.c **** *   priority: Priority of the interrupt, 0 being the highest priority
 241:.\Generated_Source\PSoC5/isr_rx.c **** *             PSoC 3 and PSoC 5LP: Priority is from 0 to 7.
 242:.\Generated_Source\PSoC5/isr_rx.c **** *             PSoC 4: Priority is from 0 to 3.
 243:.\Generated_Source\PSoC5/isr_rx.c **** *
 244:.\Generated_Source\PSoC5/isr_rx.c **** * Return:
 245:.\Generated_Source\PSoC5/isr_rx.c **** *   None
 246:.\Generated_Source\PSoC5/isr_rx.c **** *
 247:.\Generated_Source\PSoC5/isr_rx.c **** *******************************************************************************/
 248:.\Generated_Source\PSoC5/isr_rx.c **** void isr_rx_SetPriority(uint8 priority)
 249:.\Generated_Source\PSoC5/isr_rx.c **** {
  82              		.loc 1 249 0
  83              		.cfi_startproc
  84              		@ args = 0, pretend = 0, frame = 0
  85              		@ frame_needed = 0, uses_anonymous_args = 0
  86              		@ link register save eliminated.
  87              	.LVL3:
 250:.\Generated_Source\PSoC5/isr_rx.c ****     *isr_rx_INTC_PRIOR = priority << 5;
  88              		.loc 1 250 0
  89 0000 4001     		lsls	r0, r0, #5
  90              	.LVL4:
  91 0002 C0B2     		uxtb	r0, r0
  92 0004 014B     		ldr	r3, .L8
ARM GAS  C:\Users\lenovo\AppData\Local\Temp\ccSKfcxi.s 			page 7


  93 0006 1870     		strb	r0, [r3]
  94 0008 7047     		bx	lr
  95              	.L9:
  96 000a 00BF     		.align	2
  97              	.L8:
  98 000c 00E400E0 		.word	-536812544
  99              		.cfi_endproc
 100              	.LFE68:
 101              		.size	isr_rx_SetPriority, .-isr_rx_SetPriority
 102              		.section	.text.isr_rx_GetPriority,"ax",%progbits
 103              		.align	2
 104              		.global	isr_rx_GetPriority
 105              		.thumb
 106              		.thumb_func
 107              		.type	isr_rx_GetPriority, %function
 108              	isr_rx_GetPriority:
 109              	.LFB69:
 251:.\Generated_Source\PSoC5/isr_rx.c **** }
 252:.\Generated_Source\PSoC5/isr_rx.c **** 
 253:.\Generated_Source\PSoC5/isr_rx.c **** 
 254:.\Generated_Source\PSoC5/isr_rx.c **** /*******************************************************************************
 255:.\Generated_Source\PSoC5/isr_rx.c **** * Function Name: isr_rx_GetPriority
 256:.\Generated_Source\PSoC5/isr_rx.c **** ********************************************************************************
 257:.\Generated_Source\PSoC5/isr_rx.c **** *
 258:.\Generated_Source\PSoC5/isr_rx.c **** * Summary:
 259:.\Generated_Source\PSoC5/isr_rx.c **** *   Gets the Priority of the Interrupt.
 260:.\Generated_Source\PSoC5/isr_rx.c **** *
 261:.\Generated_Source\PSoC5/isr_rx.c **** * Parameters:
 262:.\Generated_Source\PSoC5/isr_rx.c **** *   None
 263:.\Generated_Source\PSoC5/isr_rx.c **** *
 264:.\Generated_Source\PSoC5/isr_rx.c **** * Return:
 265:.\Generated_Source\PSoC5/isr_rx.c **** *   Priority of the interrupt, 0 being the highest priority
 266:.\Generated_Source\PSoC5/isr_rx.c **** *    PSoC 3 and PSoC 5LP: Priority is from 0 to 7.
 267:.\Generated_Source\PSoC5/isr_rx.c **** *    PSoC 4: Priority is from 0 to 3.
 268:.\Generated_Source\PSoC5/isr_rx.c **** *
 269:.\Generated_Source\PSoC5/isr_rx.c **** *******************************************************************************/
 270:.\Generated_Source\PSoC5/isr_rx.c **** uint8 isr_rx_GetPriority(void)
 271:.\Generated_Source\PSoC5/isr_rx.c **** {
 110              		.loc 1 271 0
 111              		.cfi_startproc
 112              		@ args = 0, pretend = 0, frame = 0
 113              		@ frame_needed = 0, uses_anonymous_args = 0
 114              		@ link register save eliminated.
 272:.\Generated_Source\PSoC5/isr_rx.c ****     uint8 priority;
 273:.\Generated_Source\PSoC5/isr_rx.c **** 
 274:.\Generated_Source\PSoC5/isr_rx.c **** 
 275:.\Generated_Source\PSoC5/isr_rx.c ****     priority = *isr_rx_INTC_PRIOR >> 5;
 115              		.loc 1 275 0
 116 0000 014B     		ldr	r3, .L11
 117 0002 1878     		ldrb	r0, [r3]	@ zero_extendqisi2
 118              	.LVL5:
 276:.\Generated_Source\PSoC5/isr_rx.c **** 
 277:.\Generated_Source\PSoC5/isr_rx.c ****     return priority;
 278:.\Generated_Source\PSoC5/isr_rx.c **** }
 119              		.loc 1 278 0
 120 0004 4009     		lsrs	r0, r0, #5
 121              	.LVL6:
ARM GAS  C:\Users\lenovo\AppData\Local\Temp\ccSKfcxi.s 			page 8


 122 0006 7047     		bx	lr
 123              	.L12:
 124              		.align	2
 125              	.L11:
 126 0008 00E400E0 		.word	-536812544
 127              		.cfi_endproc
 128              	.LFE69:
 129              		.size	isr_rx_GetPriority, .-isr_rx_GetPriority
 130              		.section	.text.isr_rx_Enable,"ax",%progbits
 131              		.align	2
 132              		.global	isr_rx_Enable
 133              		.thumb
 134              		.thumb_func
 135              		.type	isr_rx_Enable, %function
 136              	isr_rx_Enable:
 137              	.LFB70:
 279:.\Generated_Source\PSoC5/isr_rx.c **** 
 280:.\Generated_Source\PSoC5/isr_rx.c **** 
 281:.\Generated_Source\PSoC5/isr_rx.c **** /*******************************************************************************
 282:.\Generated_Source\PSoC5/isr_rx.c **** * Function Name: isr_rx_Enable
 283:.\Generated_Source\PSoC5/isr_rx.c **** ********************************************************************************
 284:.\Generated_Source\PSoC5/isr_rx.c **** *
 285:.\Generated_Source\PSoC5/isr_rx.c **** * Summary:
 286:.\Generated_Source\PSoC5/isr_rx.c **** *   Enables the interrupt to the interrupt controller. Do not call this function
 287:.\Generated_Source\PSoC5/isr_rx.c **** *   unless ISR_Start() has been called or the functionality of the ISR_Start() 
 288:.\Generated_Source\PSoC5/isr_rx.c **** *   function, which sets the vector and the priority, has been called.
 289:.\Generated_Source\PSoC5/isr_rx.c **** *
 290:.\Generated_Source\PSoC5/isr_rx.c **** * Parameters:
 291:.\Generated_Source\PSoC5/isr_rx.c **** *   None
 292:.\Generated_Source\PSoC5/isr_rx.c **** *
 293:.\Generated_Source\PSoC5/isr_rx.c **** * Return:
 294:.\Generated_Source\PSoC5/isr_rx.c **** *   None
 295:.\Generated_Source\PSoC5/isr_rx.c **** *
 296:.\Generated_Source\PSoC5/isr_rx.c **** *******************************************************************************/
 297:.\Generated_Source\PSoC5/isr_rx.c **** void isr_rx_Enable(void)
 298:.\Generated_Source\PSoC5/isr_rx.c **** {
 138              		.loc 1 298 0
 139              		.cfi_startproc
 140              		@ args = 0, pretend = 0, frame = 0
 141              		@ frame_needed = 0, uses_anonymous_args = 0
 142              		@ link register save eliminated.
 299:.\Generated_Source\PSoC5/isr_rx.c ****     /* Enable the general interrupt. */
 300:.\Generated_Source\PSoC5/isr_rx.c ****     *isr_rx_INTC_SET_EN = isr_rx__INTC_MASK;
 143              		.loc 1 300 0
 144 0000 0122     		movs	r2, #1
 145 0002 014B     		ldr	r3, .L14
 146 0004 1A60     		str	r2, [r3]
 147 0006 7047     		bx	lr
 148              	.L15:
 149              		.align	2
 150              	.L14:
 151 0008 00E100E0 		.word	-536813312
 152              		.cfi_endproc
 153              	.LFE70:
 154              		.size	isr_rx_Enable, .-isr_rx_Enable
 155              		.section	.text.isr_rx_GetState,"ax",%progbits
 156              		.align	2
ARM GAS  C:\Users\lenovo\AppData\Local\Temp\ccSKfcxi.s 			page 9


 157              		.global	isr_rx_GetState
 158              		.thumb
 159              		.thumb_func
 160              		.type	isr_rx_GetState, %function
 161              	isr_rx_GetState:
 162              	.LFB71:
 301:.\Generated_Source\PSoC5/isr_rx.c **** }
 302:.\Generated_Source\PSoC5/isr_rx.c **** 
 303:.\Generated_Source\PSoC5/isr_rx.c **** 
 304:.\Generated_Source\PSoC5/isr_rx.c **** /*******************************************************************************
 305:.\Generated_Source\PSoC5/isr_rx.c **** * Function Name: isr_rx_GetState
 306:.\Generated_Source\PSoC5/isr_rx.c **** ********************************************************************************
 307:.\Generated_Source\PSoC5/isr_rx.c **** *
 308:.\Generated_Source\PSoC5/isr_rx.c **** * Summary:
 309:.\Generated_Source\PSoC5/isr_rx.c **** *   Gets the state (enabled, disabled) of the Interrupt.
 310:.\Generated_Source\PSoC5/isr_rx.c **** *
 311:.\Generated_Source\PSoC5/isr_rx.c **** * Parameters:
 312:.\Generated_Source\PSoC5/isr_rx.c **** *   None
 313:.\Generated_Source\PSoC5/isr_rx.c **** *
 314:.\Generated_Source\PSoC5/isr_rx.c **** * Return:
 315:.\Generated_Source\PSoC5/isr_rx.c **** *   1 if enabled, 0 if disabled.
 316:.\Generated_Source\PSoC5/isr_rx.c **** *
 317:.\Generated_Source\PSoC5/isr_rx.c **** *******************************************************************************/
 318:.\Generated_Source\PSoC5/isr_rx.c **** uint8 isr_rx_GetState(void)
 319:.\Generated_Source\PSoC5/isr_rx.c **** {
 163              		.loc 1 319 0
 164              		.cfi_startproc
 165              		@ args = 0, pretend = 0, frame = 0
 166              		@ frame_needed = 0, uses_anonymous_args = 0
 167              		@ link register save eliminated.
 320:.\Generated_Source\PSoC5/isr_rx.c ****     /* Get the state of the general interrupt. */
 321:.\Generated_Source\PSoC5/isr_rx.c ****     return ((*isr_rx_INTC_SET_EN & (uint32)isr_rx__INTC_MASK) != 0u) ? 1u:0u;
 168              		.loc 1 321 0
 169 0000 024B     		ldr	r3, .L17
 170 0002 1868     		ldr	r0, [r3]
 322:.\Generated_Source\PSoC5/isr_rx.c **** }
 171              		.loc 1 322 0
 172 0004 00F00100 		and	r0, r0, #1
 173 0008 7047     		bx	lr
 174              	.L18:
 175 000a 00BF     		.align	2
 176              	.L17:
 177 000c 00E100E0 		.word	-536813312
 178              		.cfi_endproc
 179              	.LFE71:
 180              		.size	isr_rx_GetState, .-isr_rx_GetState
 181              		.section	.text.isr_rx_Disable,"ax",%progbits
 182              		.align	2
 183              		.global	isr_rx_Disable
 184              		.thumb
 185              		.thumb_func
 186              		.type	isr_rx_Disable, %function
 187              	isr_rx_Disable:
 188              	.LFB72:
 323:.\Generated_Source\PSoC5/isr_rx.c **** 
 324:.\Generated_Source\PSoC5/isr_rx.c **** 
 325:.\Generated_Source\PSoC5/isr_rx.c **** /*******************************************************************************
ARM GAS  C:\Users\lenovo\AppData\Local\Temp\ccSKfcxi.s 			page 10


 326:.\Generated_Source\PSoC5/isr_rx.c **** * Function Name: isr_rx_Disable
 327:.\Generated_Source\PSoC5/isr_rx.c **** ********************************************************************************
 328:.\Generated_Source\PSoC5/isr_rx.c **** *
 329:.\Generated_Source\PSoC5/isr_rx.c **** * Summary:
 330:.\Generated_Source\PSoC5/isr_rx.c **** *   Disables the Interrupt in the interrupt controller.
 331:.\Generated_Source\PSoC5/isr_rx.c **** *
 332:.\Generated_Source\PSoC5/isr_rx.c **** * Parameters:
 333:.\Generated_Source\PSoC5/isr_rx.c **** *   None
 334:.\Generated_Source\PSoC5/isr_rx.c **** *
 335:.\Generated_Source\PSoC5/isr_rx.c **** * Return:
 336:.\Generated_Source\PSoC5/isr_rx.c **** *   None
 337:.\Generated_Source\PSoC5/isr_rx.c **** *
 338:.\Generated_Source\PSoC5/isr_rx.c **** *******************************************************************************/
 339:.\Generated_Source\PSoC5/isr_rx.c **** void isr_rx_Disable(void)
 340:.\Generated_Source\PSoC5/isr_rx.c **** {
 189              		.loc 1 340 0
 190              		.cfi_startproc
 191              		@ args = 0, pretend = 0, frame = 0
 192              		@ frame_needed = 0, uses_anonymous_args = 0
 193              		@ link register save eliminated.
 341:.\Generated_Source\PSoC5/isr_rx.c ****     /* Disable the general interrupt. */
 342:.\Generated_Source\PSoC5/isr_rx.c ****     *isr_rx_INTC_CLR_EN = isr_rx__INTC_MASK;
 194              		.loc 1 342 0
 195 0000 0122     		movs	r2, #1
 196 0002 014B     		ldr	r3, .L20
 197 0004 1A60     		str	r2, [r3]
 198 0006 7047     		bx	lr
 199              	.L21:
 200              		.align	2
 201              	.L20:
 202 0008 80E100E0 		.word	-536813184
 203              		.cfi_endproc
 204              	.LFE72:
 205              		.size	isr_rx_Disable, .-isr_rx_Disable
 206              		.section	.text.isr_rx_Start,"ax",%progbits
 207              		.align	2
 208              		.global	isr_rx_Start
 209              		.thumb
 210              		.thumb_func
 211              		.type	isr_rx_Start, %function
 212              	isr_rx_Start:
 213              	.LFB63:
  62:.\Generated_Source\PSoC5/isr_rx.c ****     /* For all we know the interrupt is active. */
 214              		.loc 1 62 0
 215              		.cfi_startproc
 216              		@ args = 0, pretend = 0, frame = 0
 217              		@ frame_needed = 0, uses_anonymous_args = 0
 218 0000 08B5     		push	{r3, lr}
 219              		.cfi_def_cfa_offset 8
 220              		.cfi_offset 3, -8
 221              		.cfi_offset 14, -4
  64:.\Generated_Source\PSoC5/isr_rx.c **** 
 222              		.loc 1 64 0
 223 0002 FFF7FEFF 		bl	isr_rx_Disable
 224              	.LVL7:
  67:.\Generated_Source\PSoC5/isr_rx.c **** 
 225              		.loc 1 67 0
ARM GAS  C:\Users\lenovo\AppData\Local\Temp\ccSKfcxi.s 			page 11


 226 0006 0448     		ldr	r0, .L24
 227 0008 FFF7FEFF 		bl	isr_rx_SetVector
 228              	.LVL8:
  70:.\Generated_Source\PSoC5/isr_rx.c **** 
 229              		.loc 1 70 0
 230 000c 0720     		movs	r0, #7
 231 000e FFF7FEFF 		bl	isr_rx_SetPriority
 232              	.LVL9:
  73:.\Generated_Source\PSoC5/isr_rx.c **** }
 233              		.loc 1 73 0
 234 0012 FFF7FEFF 		bl	isr_rx_Enable
 235              	.LVL10:
 236 0016 08BD     		pop	{r3, pc}
 237              	.L25:
 238              		.align	2
 239              	.L24:
 240 0018 00000000 		.word	isr_rx_Interrupt
 241              		.cfi_endproc
 242              	.LFE63:
 243              		.size	isr_rx_Start, .-isr_rx_Start
 244              		.section	.text.isr_rx_StartEx,"ax",%progbits
 245              		.align	2
 246              		.global	isr_rx_StartEx
 247              		.thumb
 248              		.thumb_func
 249              		.type	isr_rx_StartEx, %function
 250              	isr_rx_StartEx:
 251              	.LFB64:
 105:.\Generated_Source\PSoC5/isr_rx.c ****     /* For all we know the interrupt is active. */
 252              		.loc 1 105 0
 253              		.cfi_startproc
 254              		@ args = 0, pretend = 0, frame = 0
 255              		@ frame_needed = 0, uses_anonymous_args = 0
 256              	.LVL11:
 257 0000 10B5     		push	{r4, lr}
 258              		.cfi_def_cfa_offset 8
 259              		.cfi_offset 4, -8
 260              		.cfi_offset 14, -4
 261 0002 0446     		mov	r4, r0
 107:.\Generated_Source\PSoC5/isr_rx.c **** 
 262              		.loc 1 107 0
 263 0004 FFF7FEFF 		bl	isr_rx_Disable
 264              	.LVL12:
 110:.\Generated_Source\PSoC5/isr_rx.c **** 
 265              		.loc 1 110 0
 266 0008 2046     		mov	r0, r4
 267 000a FFF7FEFF 		bl	isr_rx_SetVector
 268              	.LVL13:
 113:.\Generated_Source\PSoC5/isr_rx.c **** 
 269              		.loc 1 113 0
 270 000e 0720     		movs	r0, #7
 271 0010 FFF7FEFF 		bl	isr_rx_SetPriority
 272              	.LVL14:
 116:.\Generated_Source\PSoC5/isr_rx.c **** }
 273              		.loc 1 116 0
 274 0014 FFF7FEFF 		bl	isr_rx_Enable
 275              	.LVL15:
ARM GAS  C:\Users\lenovo\AppData\Local\Temp\ccSKfcxi.s 			page 12


 276 0018 10BD     		pop	{r4, pc}
 277              		.cfi_endproc
 278              	.LFE64:
 279              		.size	isr_rx_StartEx, .-isr_rx_StartEx
 280 001a 00BF     		.section	.text.isr_rx_Stop,"ax",%progbits
 281              		.align	2
 282              		.global	isr_rx_Stop
 283              		.thumb
 284              		.thumb_func
 285              		.type	isr_rx_Stop, %function
 286              	isr_rx_Stop:
 287              	.LFB65:
 135:.\Generated_Source\PSoC5/isr_rx.c ****     /* Disable this interrupt. */
 288              		.loc 1 135 0
 289              		.cfi_startproc
 290              		@ args = 0, pretend = 0, frame = 0
 291              		@ frame_needed = 0, uses_anonymous_args = 0
 292 0000 08B5     		push	{r3, lr}
 293              		.cfi_def_cfa_offset 8
 294              		.cfi_offset 3, -8
 295              		.cfi_offset 14, -4
 137:.\Generated_Source\PSoC5/isr_rx.c **** 
 296              		.loc 1 137 0
 297 0002 FFF7FEFF 		bl	isr_rx_Disable
 298              	.LVL16:
 140:.\Generated_Source\PSoC5/isr_rx.c **** }
 299              		.loc 1 140 0
 300 0006 0248     		ldr	r0, .L30
 301 0008 FFF7FEFF 		bl	isr_rx_SetVector
 302              	.LVL17:
 303 000c 08BD     		pop	{r3, pc}
 304              	.L31:
 305 000e 00BF     		.align	2
 306              	.L30:
 307 0010 00000000 		.word	IntDefaultHandler
 308              		.cfi_endproc
 309              	.LFE65:
 310              		.size	isr_rx_Stop, .-isr_rx_Stop
 311              		.section	.text.isr_rx_SetPending,"ax",%progbits
 312              		.align	2
 313              		.global	isr_rx_SetPending
 314              		.thumb
 315              		.thumb_func
 316              		.type	isr_rx_SetPending, %function
 317              	isr_rx_SetPending:
 318              	.LFB73:
 343:.\Generated_Source\PSoC5/isr_rx.c **** }
 344:.\Generated_Source\PSoC5/isr_rx.c **** 
 345:.\Generated_Source\PSoC5/isr_rx.c **** 
 346:.\Generated_Source\PSoC5/isr_rx.c **** /*******************************************************************************
 347:.\Generated_Source\PSoC5/isr_rx.c **** * Function Name: isr_rx_SetPending
 348:.\Generated_Source\PSoC5/isr_rx.c **** ********************************************************************************
 349:.\Generated_Source\PSoC5/isr_rx.c **** *
 350:.\Generated_Source\PSoC5/isr_rx.c **** * Summary:
 351:.\Generated_Source\PSoC5/isr_rx.c **** *   Causes the Interrupt to enter the pending state, a software method of
 352:.\Generated_Source\PSoC5/isr_rx.c **** *   generating the interrupt.
 353:.\Generated_Source\PSoC5/isr_rx.c **** *
ARM GAS  C:\Users\lenovo\AppData\Local\Temp\ccSKfcxi.s 			page 13


 354:.\Generated_Source\PSoC5/isr_rx.c **** * Parameters:
 355:.\Generated_Source\PSoC5/isr_rx.c **** *   None
 356:.\Generated_Source\PSoC5/isr_rx.c **** *
 357:.\Generated_Source\PSoC5/isr_rx.c **** * Return:
 358:.\Generated_Source\PSoC5/isr_rx.c **** *   None
 359:.\Generated_Source\PSoC5/isr_rx.c **** *
 360:.\Generated_Source\PSoC5/isr_rx.c **** * Side Effects:
 361:.\Generated_Source\PSoC5/isr_rx.c **** *   If interrupts are enabled and the interrupt is set up properly, the ISR is
 362:.\Generated_Source\PSoC5/isr_rx.c **** *   entered (depending on the priority of this interrupt and other pending 
 363:.\Generated_Source\PSoC5/isr_rx.c **** *   interrupts).
 364:.\Generated_Source\PSoC5/isr_rx.c **** *
 365:.\Generated_Source\PSoC5/isr_rx.c **** *******************************************************************************/
 366:.\Generated_Source\PSoC5/isr_rx.c **** void isr_rx_SetPending(void)
 367:.\Generated_Source\PSoC5/isr_rx.c **** {
 319              		.loc 1 367 0
 320              		.cfi_startproc
 321              		@ args = 0, pretend = 0, frame = 0
 322              		@ frame_needed = 0, uses_anonymous_args = 0
 323              		@ link register save eliminated.
 368:.\Generated_Source\PSoC5/isr_rx.c ****     *isr_rx_INTC_SET_PD = isr_rx__INTC_MASK;
 324              		.loc 1 368 0
 325 0000 0122     		movs	r2, #1
 326 0002 014B     		ldr	r3, .L33
 327 0004 1A60     		str	r2, [r3]
 328 0006 7047     		bx	lr
 329              	.L34:
 330              		.align	2
 331              	.L33:
 332 0008 00E200E0 		.word	-536813056
 333              		.cfi_endproc
 334              	.LFE73:
 335              		.size	isr_rx_SetPending, .-isr_rx_SetPending
 336              		.section	.text.isr_rx_ClearPending,"ax",%progbits
 337              		.align	2
 338              		.global	isr_rx_ClearPending
 339              		.thumb
 340              		.thumb_func
 341              		.type	isr_rx_ClearPending, %function
 342              	isr_rx_ClearPending:
 343              	.LFB74:
 369:.\Generated_Source\PSoC5/isr_rx.c **** }
 370:.\Generated_Source\PSoC5/isr_rx.c **** 
 371:.\Generated_Source\PSoC5/isr_rx.c **** 
 372:.\Generated_Source\PSoC5/isr_rx.c **** /*******************************************************************************
 373:.\Generated_Source\PSoC5/isr_rx.c **** * Function Name: isr_rx_ClearPending
 374:.\Generated_Source\PSoC5/isr_rx.c **** ********************************************************************************
 375:.\Generated_Source\PSoC5/isr_rx.c **** *
 376:.\Generated_Source\PSoC5/isr_rx.c **** * Summary:
 377:.\Generated_Source\PSoC5/isr_rx.c **** *   Clears a pending interrupt in the interrupt controller.
 378:.\Generated_Source\PSoC5/isr_rx.c **** *
 379:.\Generated_Source\PSoC5/isr_rx.c **** *   Note Some interrupt sources are clear-on-read and require the block 
 380:.\Generated_Source\PSoC5/isr_rx.c **** *   interrupt/status register to be read/cleared with the appropriate block API 
 381:.\Generated_Source\PSoC5/isr_rx.c **** *   (GPIO, UART, and so on). Otherwise the ISR will continue to remain in 
 382:.\Generated_Source\PSoC5/isr_rx.c **** *   pending state even though the interrupt itself is cleared using this API.
 383:.\Generated_Source\PSoC5/isr_rx.c **** *
 384:.\Generated_Source\PSoC5/isr_rx.c **** * Parameters:
 385:.\Generated_Source\PSoC5/isr_rx.c **** *   None
ARM GAS  C:\Users\lenovo\AppData\Local\Temp\ccSKfcxi.s 			page 14


 386:.\Generated_Source\PSoC5/isr_rx.c **** *
 387:.\Generated_Source\PSoC5/isr_rx.c **** * Return:
 388:.\Generated_Source\PSoC5/isr_rx.c **** *   None
 389:.\Generated_Source\PSoC5/isr_rx.c **** *
 390:.\Generated_Source\PSoC5/isr_rx.c **** *******************************************************************************/
 391:.\Generated_Source\PSoC5/isr_rx.c **** void isr_rx_ClearPending(void)
 392:.\Generated_Source\PSoC5/isr_rx.c **** {
 344              		.loc 1 392 0
 345              		.cfi_startproc
 346              		@ args = 0, pretend = 0, frame = 0
 347              		@ frame_needed = 0, uses_anonymous_args = 0
 348              		@ link register save eliminated.
 393:.\Generated_Source\PSoC5/isr_rx.c ****     *isr_rx_INTC_CLR_PD = isr_rx__INTC_MASK;
 349              		.loc 1 393 0
 350 0000 0122     		movs	r2, #1
 351 0002 014B     		ldr	r3, .L36
 352 0004 1A60     		str	r2, [r3]
 353 0006 7047     		bx	lr
 354              	.L37:
 355              		.align	2
 356              	.L36:
 357 0008 80E200E0 		.word	-536812928
 358              		.cfi_endproc
 359              	.LFE74:
 360              		.size	isr_rx_ClearPending, .-isr_rx_ClearPending
 361              		.text
 362              	.Letext0:
 363              		.file 2 "c:\\program files (x86)\\cypress\\psoc creator\\3.3\\psoc creator\\import\\gnu\\arm\\4.9.
 364              		.file 3 "c:\\program files (x86)\\cypress\\psoc creator\\3.3\\psoc creator\\import\\gnu\\arm\\4.9.
 365              		.file 4 "Generated_Source\\PSoC5/cytypes.h"
 366              		.file 5 "Generated_Source\\PSoC5/core_cm3.h"