ARM GAS  C:\Users\lenovo\AppData\Local\Temp\cctHFFKY.s 			page 1


   1              		.syntax unified
   2              		.cpu cortex-m3
   3              		.fpu softvfp
   4              		.eabi_attribute 20, 1
   5              		.eabi_attribute 21, 1
   6              		.eabi_attribute 23, 3
   7              		.eabi_attribute 24, 1
   8              		.eabi_attribute 25, 1
   9              		.eabi_attribute 26, 1
  10              		.eabi_attribute 30, 1
  11              		.eabi_attribute 34, 1
  12              		.eabi_attribute 18, 4
  13              		.thumb
  14              		.file	"main.c"
  15              		.text
  16              	.Ltext0:
  17              		.cfi_sections	.debug_frame
  18              		.section	.text.change_id,"ax",%progbits
  19              		.align	2
  20              		.global	change_id
  21              		.thumb
  22              		.thumb_func
  23              		.type	change_id, %function
  24              	change_id:
  25              	.LFB63:
  26              		.file 1 ".\\main.c"
   1:.\main.c      **** /* ========================================
   2:.\main.c      ****  *
   3:.\main.c      ****  * Copyright YOUR COMPANY, THE YEAR
   4:.\main.c      ****  * All Rights Reserved
   5:.\main.c      ****  * UNPUBLISHED, LICENSED SOFTWARE.
   6:.\main.c      ****  *
   7:.\main.c      ****  * CONFIDENTIAL AND PROPRIETARY INFORMATION
   8:.\main.c      ****  * WHICH IS THE PROPERTY OF your company.
   9:.\main.c      ****  *
  10:.\main.c      ****  * ========================================
  11:.\main.c      **** */
  12:.\main.c      **** 
  13:.\main.c      **** // 2018.7.8. 15:09
  14:.\main.c      **** #include <project.h>
  15:.\main.c      **** #include "cyapicallbacks.h"
  16:.\main.c      **** 
  17:.\main.c      **** 
  18:.\main.c      **** //PSoc向Robot的指令
  19:.\main.c      **** uint8 Cmd2Robot[64];
  20:.\main.c      **** uint8 AnsFromRobot[64];
  21:.\main.c      **** 
  22:.\main.c      **** unsigned short ID_read;
  23:.\main.c      **** unsigned short Len_read;
  24:.\main.c      **** 
  25:.\main.c      **** const uint8 broadcastID = 0xFE;
  26:.\main.c      **** 
  27:.\main.c      **** volatile uint8 Mode = 0;
  28:.\main.c      **** struct MotorInfo motorinfo[4];
  29:.\main.c      **** uint8 quesnum = 0;
  30:.\main.c      **** 
  31:.\main.c      **** 
ARM GAS  C:\Users\lenovo\AppData\Local\Temp\cctHFFKY.s 			page 2


  32:.\main.c      **** //修改ID
  33:.\main.c      **** void change_id(uint8 old_id,uint8 new_id)
  34:.\main.c      **** {
  27              		.loc 1 34 0
  28              		.cfi_startproc
  29              		@ args = 0, pretend = 0, frame = 0
  30              		@ frame_needed = 0, uses_anonymous_args = 0
  31              	.LVL0:
  32 0000 08B5     		push	{r3, lr}
  33              		.cfi_def_cfa_offset 8
  34              		.cfi_offset 3, -8
  35              		.cfi_offset 14, -4
  35:.\main.c      ****     Cmd2Robot[0] = 0xFF; 
  36              		.loc 1 35 0
  37 0002 0B4B     		ldr	r3, .L3
  38 0004 FF22     		movs	r2, #255
  39 0006 1A70     		strb	r2, [r3]
  36:.\main.c      ****     Cmd2Robot[1] = 0xFF;
  40              		.loc 1 36 0
  41 0008 5A70     		strb	r2, [r3, #1]
  37:.\main.c      ****     Cmd2Robot[2] = old_id;  //ID
  42              		.loc 1 37 0
  43 000a 9870     		strb	r0, [r3, #2]
  38:.\main.c      ****     Cmd2Robot[3] = 0x04;   //有效数据长度
  44              		.loc 1 38 0
  45 000c 0422     		movs	r2, #4
  46 000e DA70     		strb	r2, [r3, #3]
  39:.\main.c      ****     Cmd2Robot[4] = 0x03;    //WRITE DATA 指令
  47              		.loc 1 39 0
  48 0010 0322     		movs	r2, #3
  49 0012 1A71     		strb	r2, [r3, #4]
  40:.\main.c      ****     Cmd2Robot[5] = 0x03;    //Address
  50              		.loc 1 40 0
  51 0014 5A71     		strb	r2, [r3, #5]
  41:.\main.c      ****     Cmd2Robot[6] = new_id;
  52              		.loc 1 41 0
  53 0016 9971     		strb	r1, [r3, #6]
  42:.\main.c      ****     Cmd2Robot[7] = ~(Cmd2Robot[2] + Cmd2Robot[3] + Cmd2Robot[4] + Cmd2Robot[5] + Cmd2Robot[6]);
  54              		.loc 1 42 0
  55 0018 0A30     		adds	r0, r0, #10
  56              	.LVL1:
  57 001a 0144     		add	r1, r1, r0
  58              	.LVL2:
  59 001c C943     		mvns	r1, r1
  60 001e D971     		strb	r1, [r3, #7]
  43:.\main.c      ****     Cmd2Robot[8] = 0;
  61              		.loc 1 43 0
  62 0020 0022     		movs	r2, #0
  63 0022 1A72     		strb	r2, [r3, #8]
  44:.\main.c      ****     UART_PutArray(Cmd2Robot,9);
  64              		.loc 1 44 0
  65 0024 1846     		mov	r0, r3
  66 0026 0921     		movs	r1, #9
  67 0028 FFF7FEFF 		bl	UART_PutArray
  68              	.LVL3:
  69 002c 08BD     		pop	{r3, pc}
  70              	.L4:
ARM GAS  C:\Users\lenovo\AppData\Local\Temp\cctHFFKY.s 			page 3


  71 002e 00BF     		.align	2
  72              	.L3:
  73 0030 00000000 		.word	Cmd2Robot
  74              		.cfi_endproc
  75              	.LFE63:
  76              		.size	change_id, .-change_id
  77              		.section	.text.writeDelayTime,"ax",%progbits
  78              		.align	2
  79              		.global	writeDelayTime
  80              		.thumb
  81              		.thumb_func
  82              		.type	writeDelayTime, %function
  83              	writeDelayTime:
  84              	.LFB64:
  45:.\main.c      **** }
  46:.\main.c      **** 
  47:.\main.c      **** //写延迟时间,100us为0x32
  48:.\main.c      **** void writeDelayTime(uint8 id, uint8 delaytime)
  49:.\main.c      **** {	
  85              		.loc 1 49 0
  86              		.cfi_startproc
  87              		@ args = 0, pretend = 0, frame = 0
  88              		@ frame_needed = 0, uses_anonymous_args = 0
  89              	.LVL4:
  90 0000 38B5     		push	{r3, r4, r5, lr}
  91              		.cfi_def_cfa_offset 16
  92              		.cfi_offset 3, -16
  93              		.cfi_offset 4, -12
  94              		.cfi_offset 5, -8
  95              		.cfi_offset 14, -4
  96 0002 0546     		mov	r5, r0
  97 0004 0C46     		mov	r4, r1
  50:.\main.c      ****     Cmd2Robot[0] = 0xFF;
  98              		.loc 1 50 0
  99 0006 164B     		ldr	r3, .L13
 100 0008 FF22     		movs	r2, #255
 101 000a 1A70     		strb	r2, [r3]
  51:.\main.c      ****     Cmd2Robot[1] = 0xFF;
 102              		.loc 1 51 0
 103 000c 5A70     		strb	r2, [r3, #1]
  52:.\main.c      ****     Cmd2Robot[2] = id;
 104              		.loc 1 52 0
 105 000e 9870     		strb	r0, [r3, #2]
  53:.\main.c      ****     Cmd2Robot[3] = 0x04;
 106              		.loc 1 53 0
 107 0010 0422     		movs	r2, #4
 108 0012 DA70     		strb	r2, [r3, #3]
  54:.\main.c      ****     Cmd2Robot[4] = 0x03;
 109              		.loc 1 54 0
 110 0014 0322     		movs	r2, #3
 111 0016 1A71     		strb	r2, [r3, #4]
  55:.\main.c      ****     Cmd2Robot[5] = 0x05;
 112              		.loc 1 55 0
 113 0018 0522     		movs	r2, #5
 114 001a 5A71     		strb	r2, [r3, #5]
  56:.\main.c      ****     Cmd2Robot[6] = delaytime;
 115              		.loc 1 56 0
ARM GAS  C:\Users\lenovo\AppData\Local\Temp\cctHFFKY.s 			page 4


 116 001c 9971     		strb	r1, [r3, #6]
 117              	.LVL5:
  57:.\main.c      **** 
  58:.\main.c      ****     char temp = 0x00;
  59:.\main.c      ****     int i = 2;
 118              		.loc 1 59 0
 119 001e 0222     		movs	r2, #2
  58:.\main.c      ****     int i = 2;
 120              		.loc 1 58 0
 121 0020 0023     		movs	r3, #0
  60:.\main.c      ****     for(; i < 7 ; i++)
 122              		.loc 1 60 0
 123 0022 04E0     		b	.L6
 124              	.LVL6:
 125              	.L7:
  61:.\main.c      ****     {
  62:.\main.c      ****         temp += Cmd2Robot[i];
 126              		.loc 1 62 0 discriminator 2
 127 0024 0E49     		ldr	r1, .L13
 128 0026 895C     		ldrb	r1, [r1, r2]	@ zero_extendqisi2
 129 0028 0B44     		add	r3, r3, r1
 130              	.LVL7:
 131 002a DBB2     		uxtb	r3, r3
 132              	.LVL8:
  60:.\main.c      ****     for(; i < 7 ; i++)
 133              		.loc 1 60 0 discriminator 2
 134 002c 0132     		adds	r2, r2, #1
 135              	.LVL9:
 136              	.L6:
  60:.\main.c      ****     for(; i < 7 ; i++)
 137              		.loc 1 60 0 is_stmt 0 discriminator 1
 138 002e 062A     		cmp	r2, #6
 139 0030 F8DD     		ble	.L7
  63:.\main.c      ****     }
  64:.\main.c      ****     Cmd2Robot[7] = ~temp;
 140              		.loc 1 64 0 is_stmt 1
 141 0032 0B48     		ldr	r0, .L13
 142              	.LVL10:
 143 0034 DB43     		mvns	r3, r3
 144              	.LVL11:
 145 0036 C371     		strb	r3, [r0, #7]
  65:.\main.c      **** 
  66:.\main.c      ****     UART_PutArray(Cmd2Robot,8);
 146              		.loc 1 66 0
 147 0038 0821     		movs	r1, #8
 148 003a FFF7FEFF 		bl	UART_PutArray
 149              	.LVL12:
  67:.\main.c      **** 	if(id != broadcastID)
 150              		.loc 1 67 0
 151 003e FE2D     		cmp	r5, #254
 152 0040 0AD0     		beq	.L11
  68:.\main.c      **** 		motorinfo[id].delaytime = delaytime;
 153              		.loc 1 68 0
 154 0042 084B     		ldr	r3, .L13+4
 155 0044 03EB0515 		add	r5, r3, r5, lsl #4
 156 0048 6C70     		strb	r4, [r5, #1]
 157 004a 38BD     		pop	{r3, r4, r5, pc}
ARM GAS  C:\Users\lenovo\AppData\Local\Temp\cctHFFKY.s 			page 5


 158              	.LVL13:
 159              	.L10:
  69:.\main.c      **** 	else{
  70:.\main.c      **** 		for(i=0;i<4;i++)
  71:.\main.c      **** 			motorinfo[i].delaytime = delaytime;
 160              		.loc 1 71 0 discriminator 3
 161 004c 054A     		ldr	r2, .L13+4
 162 004e 02EB0312 		add	r2, r2, r3, lsl #4
 163 0052 5470     		strb	r4, [r2, #1]
  70:.\main.c      **** 			motorinfo[i].delaytime = delaytime;
 164              		.loc 1 70 0 discriminator 3
 165 0054 0133     		adds	r3, r3, #1
 166              	.LVL14:
 167 0056 00E0     		b	.L8
 168              	.LVL15:
 169              	.L11:
 170 0058 0023     		movs	r3, #0
 171              	.L8:
 172              	.LVL16:
  70:.\main.c      **** 			motorinfo[i].delaytime = delaytime;
 173              		.loc 1 70 0 is_stmt 0 discriminator 1
 174 005a 032B     		cmp	r3, #3
 175 005c F6DD     		ble	.L10
 176 005e 38BD     		pop	{r3, r4, r5, pc}
 177              	.LVL17:
 178              	.L14:
 179              		.align	2
 180              	.L13:
 181 0060 00000000 		.word	Cmd2Robot
 182 0064 00000000 		.word	motorinfo
 183              		.cfi_endproc
 184              	.LFE64:
 185              		.size	writeDelayTime, .-writeDelayTime
 186              		.section	.text.limit_ccw,"ax",%progbits
 187              		.align	2
 188              		.global	limit_ccw
 189              		.thumb
 190              		.thumb_func
 191              		.type	limit_ccw, %function
 192              	limit_ccw:
 193              	.LFB65:
  72:.\main.c      **** 	}
  73:.\main.c      **** }
  74:.\main.c      **** 
  75:.\main.c      **** 
  76:.\main.c      **** //逆时针角度限制（最大值限制）
  77:.\main.c      **** void limit_ccw(uint8 id, uint16 angle)
  78:.\main.c      **** {
 194              		.loc 1 78 0 is_stmt 1
 195              		.cfi_startproc
 196              		@ args = 0, pretend = 0, frame = 0
 197              		@ frame_needed = 0, uses_anonymous_args = 0
 198              	.LVL18:
 199 0000 38B5     		push	{r3, r4, r5, lr}
 200              		.cfi_def_cfa_offset 16
 201              		.cfi_offset 3, -16
 202              		.cfi_offset 4, -12
ARM GAS  C:\Users\lenovo\AppData\Local\Temp\cctHFFKY.s 			page 6


 203              		.cfi_offset 5, -8
 204              		.cfi_offset 14, -4
 205 0002 0546     		mov	r5, r0
 206 0004 0C46     		mov	r4, r1
  79:.\main.c      ****     Cmd2Robot[0] = 0xFF;
 207              		.loc 1 79 0
 208 0006 1548     		ldr	r0, .L21
 209              	.LVL19:
 210 0008 FF23     		movs	r3, #255
 211 000a 0370     		strb	r3, [r0]
  80:.\main.c      ****     Cmd2Robot[1] = 0xFF;
 212              		.loc 1 80 0
 213 000c 4370     		strb	r3, [r0, #1]
  81:.\main.c      ****     Cmd2Robot[2] = id;      //ID
 214              		.loc 1 81 0
 215 000e 8570     		strb	r5, [r0, #2]
  82:.\main.c      ****     Cmd2Robot[3] = 0x05;    //Length
 216              		.loc 1 82 0
 217 0010 0523     		movs	r3, #5
 218 0012 C370     		strb	r3, [r0, #3]
  83:.\main.c      ****     Cmd2Robot[4] = 0x03;    //WRITE DATA
 219              		.loc 1 83 0
 220 0014 0323     		movs	r3, #3
 221 0016 0371     		strb	r3, [r0, #4]
  84:.\main.c      ****     Cmd2Robot[5] = 0x08;    //Address
 222              		.loc 1 84 0
 223 0018 0823     		movs	r3, #8
 224 001a 4371     		strb	r3, [r0, #5]
  85:.\main.c      ****     Cmd2Robot[6] = angle & 0xFF;
 225              		.loc 1 85 0
 226 001c CBB2     		uxtb	r3, r1
 227 001e 8371     		strb	r3, [r0, #6]
  86:.\main.c      ****     Cmd2Robot[7] = (angle & 0xFF00) >> 8;
 228              		.loc 1 86 0
 229 0020 090A     		lsrs	r1, r1, #8
 230              	.LVL20:
 231 0022 C171     		strb	r1, [r0, #7]
  87:.\main.c      ****     Cmd2Robot[8] = ~(Cmd2Robot[2] + Cmd2Robot[3] + Cmd2Robot[4] + Cmd2Robot[5] + Cmd2Robot[6] + Cmd
 232              		.loc 1 87 0
 233 0024 05F11002 		add	r2, r5, #16
 234 0028 1344     		add	r3, r3, r2
 235 002a 0B44     		add	r3, r3, r1
 236 002c DB43     		mvns	r3, r3
 237 002e 0372     		strb	r3, [r0, #8]
  88:.\main.c      ****     Cmd2Robot[9] = 0;
 238              		.loc 1 88 0
 239 0030 0023     		movs	r3, #0
 240 0032 4372     		strb	r3, [r0, #9]
  89:.\main.c      ****     
  90:.\main.c      ****     UART_PutArray(Cmd2Robot,10);
 241              		.loc 1 90 0
 242 0034 0A21     		movs	r1, #10
 243 0036 FFF7FEFF 		bl	UART_PutArray
 244              	.LVL21:
  91:.\main.c      **** 	if(id != broadcastID)
 245              		.loc 1 91 0
 246 003a FE2D     		cmp	r5, #254
ARM GAS  C:\Users\lenovo\AppData\Local\Temp\cctHFFKY.s 			page 7


 247 003c 0AD0     		beq	.L19
  92:.\main.c      **** 		motorinfo[id].ccw = angle;
 248              		.loc 1 92 0
 249 003e 084B     		ldr	r3, .L21+4
 250 0040 03EB0515 		add	r5, r3, r5, lsl #4
 251 0044 AC80     		strh	r4, [r5, #4]	@ movhi
 252 0046 38BD     		pop	{r3, r4, r5, pc}
 253              	.LVL22:
 254              	.L18:
 255              	.LBB2:
  93:.\main.c      **** 	else{
  94:.\main.c      ****         int i;
  95:.\main.c      **** 		for(i=0;i<4;i++)
  96:.\main.c      **** 			motorinfo[i].ccw = angle;
 256              		.loc 1 96 0 discriminator 3
 257 0048 054A     		ldr	r2, .L21+4
 258 004a 02EB0312 		add	r2, r2, r3, lsl #4
 259 004e 9480     		strh	r4, [r2, #4]	@ movhi
  95:.\main.c      **** 			motorinfo[i].ccw = angle;
 260              		.loc 1 95 0 discriminator 3
 261 0050 0133     		adds	r3, r3, #1
 262              	.LVL23:
 263 0052 00E0     		b	.L16
 264              	.LVL24:
 265              	.L19:
 266              	.LBE2:
 267 0054 0023     		movs	r3, #0
 268              	.L16:
 269              	.LVL25:
 270              	.LBB3:
  95:.\main.c      **** 			motorinfo[i].ccw = angle;
 271              		.loc 1 95 0 is_stmt 0 discriminator 1
 272 0056 032B     		cmp	r3, #3
 273 0058 F6DD     		ble	.L18
 274 005a 38BD     		pop	{r3, r4, r5, pc}
 275              	.LVL26:
 276              	.L22:
 277              		.align	2
 278              	.L21:
 279 005c 00000000 		.word	Cmd2Robot
 280 0060 00000000 		.word	motorinfo
 281              	.LBE3:
 282              		.cfi_endproc
 283              	.LFE65:
 284              		.size	limit_ccw, .-limit_ccw
 285              		.section	.text.limit_cw,"ax",%progbits
 286              		.align	2
 287              		.global	limit_cw
 288              		.thumb
 289              		.thumb_func
 290              		.type	limit_cw, %function
 291              	limit_cw:
 292              	.LFB66:
  97:.\main.c      **** 	}
  98:.\main.c      **** }
  99:.\main.c      **** 
 100:.\main.c      **** 
ARM GAS  C:\Users\lenovo\AppData\Local\Temp\cctHFFKY.s 			page 8


 101:.\main.c      **** //顺时针角度限制（最小值限制）
 102:.\main.c      **** void limit_cw(uint8 id, uint16 angle)
 103:.\main.c      **** {
 293              		.loc 1 103 0 is_stmt 1
 294              		.cfi_startproc
 295              		@ args = 0, pretend = 0, frame = 0
 296              		@ frame_needed = 0, uses_anonymous_args = 0
 297              	.LVL27:
 298 0000 38B5     		push	{r3, r4, r5, lr}
 299              		.cfi_def_cfa_offset 16
 300              		.cfi_offset 3, -16
 301              		.cfi_offset 4, -12
 302              		.cfi_offset 5, -8
 303              		.cfi_offset 14, -4
 304 0002 0546     		mov	r5, r0
 305 0004 0C46     		mov	r4, r1
 104:.\main.c      ****     Cmd2Robot[0] = 0xFF;
 306              		.loc 1 104 0
 307 0006 1548     		ldr	r0, .L29
 308              	.LVL28:
 309 0008 FF23     		movs	r3, #255
 310 000a 0370     		strb	r3, [r0]
 105:.\main.c      ****     Cmd2Robot[1] = 0xFF;
 311              		.loc 1 105 0
 312 000c 4370     		strb	r3, [r0, #1]
 106:.\main.c      ****     Cmd2Robot[2] = id;      //ID
 313              		.loc 1 106 0
 314 000e 8570     		strb	r5, [r0, #2]
 107:.\main.c      ****     Cmd2Robot[3] = 0x05;    //Length
 315              		.loc 1 107 0
 316 0010 0523     		movs	r3, #5
 317 0012 C370     		strb	r3, [r0, #3]
 108:.\main.c      ****     Cmd2Robot[4] = 0x03;
 318              		.loc 1 108 0
 319 0014 0323     		movs	r3, #3
 320 0016 0371     		strb	r3, [r0, #4]
 109:.\main.c      ****     Cmd2Robot[5] = 0x06;
 321              		.loc 1 109 0
 322 0018 0623     		movs	r3, #6
 323 001a 4371     		strb	r3, [r0, #5]
 110:.\main.c      ****     Cmd2Robot[6] = angle & 0xFF;
 324              		.loc 1 110 0
 325 001c CBB2     		uxtb	r3, r1
 326 001e 8371     		strb	r3, [r0, #6]
 111:.\main.c      ****     Cmd2Robot[7] = (angle & 0xFF00) >> 8;
 327              		.loc 1 111 0
 328 0020 090A     		lsrs	r1, r1, #8
 329              	.LVL29:
 330 0022 C171     		strb	r1, [r0, #7]
 112:.\main.c      ****     Cmd2Robot[8] = ~(Cmd2Robot[2] + Cmd2Robot[3] + Cmd2Robot[4] + Cmd2Robot[5] + Cmd2Robot[6] + Cmd
 331              		.loc 1 112 0
 332 0024 05F10E02 		add	r2, r5, #14
 333 0028 1344     		add	r3, r3, r2
 334 002a 0B44     		add	r3, r3, r1
 335 002c DB43     		mvns	r3, r3
 336 002e 0372     		strb	r3, [r0, #8]
 113:.\main.c      ****     Cmd2Robot[9] = 0;
ARM GAS  C:\Users\lenovo\AppData\Local\Temp\cctHFFKY.s 			page 9


 337              		.loc 1 113 0
 338 0030 0023     		movs	r3, #0
 339 0032 4372     		strb	r3, [r0, #9]
 114:.\main.c      ****     
 115:.\main.c      ****     UART_PutArray(Cmd2Robot,10);
 340              		.loc 1 115 0
 341 0034 0A21     		movs	r1, #10
 342 0036 FFF7FEFF 		bl	UART_PutArray
 343              	.LVL30:
 116:.\main.c      **** 	
 117:.\main.c      **** 	if(id != broadcastID)
 344              		.loc 1 117 0
 345 003a FE2D     		cmp	r5, #254
 346 003c 0AD0     		beq	.L27
 118:.\main.c      **** 		motorinfo[id].cw = angle;
 347              		.loc 1 118 0
 348 003e 084B     		ldr	r3, .L29+4
 349 0040 03EB0515 		add	r5, r3, r5, lsl #4
 350 0044 6C80     		strh	r4, [r5, #2]	@ movhi
 351 0046 38BD     		pop	{r3, r4, r5, pc}
 352              	.LVL31:
 353              	.L26:
 354              	.LBB4:
 119:.\main.c      **** 	else{
 120:.\main.c      ****         int i;
 121:.\main.c      **** 		for(i=0;i<4;i++)
 122:.\main.c      **** 			motorinfo[i].cw = angle;
 355              		.loc 1 122 0 discriminator 3
 356 0048 054A     		ldr	r2, .L29+4
 357 004a 02EB0312 		add	r2, r2, r3, lsl #4
 358 004e 5480     		strh	r4, [r2, #2]	@ movhi
 121:.\main.c      **** 			motorinfo[i].cw = angle;
 359              		.loc 1 121 0 discriminator 3
 360 0050 0133     		adds	r3, r3, #1
 361              	.LVL32:
 362 0052 00E0     		b	.L24
 363              	.LVL33:
 364              	.L27:
 365              	.LBE4:
 366 0054 0023     		movs	r3, #0
 367              	.L24:
 368              	.LVL34:
 369              	.LBB5:
 121:.\main.c      **** 			motorinfo[i].cw = angle;
 370              		.loc 1 121 0 is_stmt 0 discriminator 1
 371 0056 032B     		cmp	r3, #3
 372 0058 F6DD     		ble	.L26
 373 005a 38BD     		pop	{r3, r4, r5, pc}
 374              	.LVL35:
 375              	.L30:
 376              		.align	2
 377              	.L29:
 378 005c 00000000 		.word	Cmd2Robot
 379 0060 00000000 		.word	motorinfo
 380              	.LBE5:
 381              		.cfi_endproc
 382              	.LFE66:
ARM GAS  C:\Users\lenovo\AppData\Local\Temp\cctHFFKY.s 			page 10


 383              		.size	limit_cw, .-limit_cw
 384              		.section	.text.writeVoltRange,"ax",%progbits
 385              		.align	2
 386              		.global	writeVoltRange
 387              		.thumb
 388              		.thumb_func
 389              		.type	writeVoltRange, %function
 390              	writeVoltRange:
 391              	.LFB67:
 123:.\main.c      **** 	}
 124:.\main.c      **** }
 125:.\main.c      **** 
 126:.\main.c      **** //写电压工作范围,参数为实际的10倍
 127:.\main.c      **** //若想让低电压为6,则lowV=60
 128:.\main.c      **** void writeVoltRange(uint8 id, uint8 lowV, uint8 highV)
 129:.\main.c      **** {
 392              		.loc 1 129 0 is_stmt 1
 393              		.cfi_startproc
 394              		@ args = 0, pretend = 0, frame = 0
 395              		@ frame_needed = 0, uses_anonymous_args = 0
 396              	.LVL36:
 397 0000 10B5     		push	{r4, lr}
 398              		.cfi_def_cfa_offset 8
 399              		.cfi_offset 4, -8
 400              		.cfi_offset 14, -4
 130:.\main.c      **** 
 131:.\main.c      ****     Cmd2Robot[0] = 0xFF;
 401              		.loc 1 131 0
 402 0002 0F4B     		ldr	r3, .L35
 403 0004 FF24     		movs	r4, #255
 404 0006 1C70     		strb	r4, [r3]
 132:.\main.c      ****     Cmd2Robot[1] = 0xFF;
 405              		.loc 1 132 0
 406 0008 5C70     		strb	r4, [r3, #1]
 133:.\main.c      ****     Cmd2Robot[2] = id;
 407              		.loc 1 133 0
 408 000a 9870     		strb	r0, [r3, #2]
 134:.\main.c      ****     Cmd2Robot[3] = 0x05;
 409              		.loc 1 134 0
 410 000c 0520     		movs	r0, #5
 411              	.LVL37:
 412 000e D870     		strb	r0, [r3, #3]
 135:.\main.c      ****     Cmd2Robot[4] = 0x03;
 413              		.loc 1 135 0
 414 0010 0320     		movs	r0, #3
 415 0012 1871     		strb	r0, [r3, #4]
 136:.\main.c      ****     Cmd2Robot[5] = 0x0C;
 416              		.loc 1 136 0
 417 0014 0C20     		movs	r0, #12
 418 0016 5871     		strb	r0, [r3, #5]
 137:.\main.c      ****     Cmd2Robot[6] = lowV;
 419              		.loc 1 137 0
 420 0018 9971     		strb	r1, [r3, #6]
 138:.\main.c      ****     Cmd2Robot[7] = highV;
 421              		.loc 1 138 0
 422 001a DA71     		strb	r2, [r3, #7]
 423              	.LVL38:
ARM GAS  C:\Users\lenovo\AppData\Local\Temp\cctHFFKY.s 			page 11


 139:.\main.c      **** 
 140:.\main.c      ****     char temp = 0x00;
 141:.\main.c      ****     int i = 2;
 424              		.loc 1 141 0
 425 001c 0222     		movs	r2, #2
 426              	.LVL39:
 140:.\main.c      ****     int i = 2;
 427              		.loc 1 140 0
 428 001e 0023     		movs	r3, #0
 142:.\main.c      ****     for(; i < 8 ; i++)
 429              		.loc 1 142 0
 430 0020 04E0     		b	.L32
 431              	.LVL40:
 432              	.L33:
 143:.\main.c      ****     {
 144:.\main.c      ****         temp += Cmd2Robot[i];
 433              		.loc 1 144 0 discriminator 2
 434 0022 0749     		ldr	r1, .L35
 435 0024 895C     		ldrb	r1, [r1, r2]	@ zero_extendqisi2
 436 0026 0B44     		add	r3, r3, r1
 437              	.LVL41:
 438 0028 DBB2     		uxtb	r3, r3
 439              	.LVL42:
 142:.\main.c      ****     for(; i < 8 ; i++)
 440              		.loc 1 142 0 discriminator 2
 441 002a 0132     		adds	r2, r2, #1
 442              	.LVL43:
 443              	.L32:
 142:.\main.c      ****     for(; i < 8 ; i++)
 444              		.loc 1 142 0 is_stmt 0 discriminator 1
 445 002c 072A     		cmp	r2, #7
 446 002e F8DD     		ble	.L33
 145:.\main.c      ****     }
 146:.\main.c      ****     Cmd2Robot[8] = ~temp;
 447              		.loc 1 146 0 is_stmt 1
 448 0030 0348     		ldr	r0, .L35
 449 0032 DB43     		mvns	r3, r3
 450              	.LVL44:
 451 0034 0372     		strb	r3, [r0, #8]
 147:.\main.c      **** 
 148:.\main.c      ****     UART_PutArray(Cmd2Robot,9);
 452              		.loc 1 148 0
 453 0036 0921     		movs	r1, #9
 454 0038 FFF7FEFF 		bl	UART_PutArray
 455              	.LVL45:
 456 003c 10BD     		pop	{r4, pc}
 457              	.L36:
 458 003e 00BF     		.align	2
 459              	.L35:
 460 0040 00000000 		.word	Cmd2Robot
 461              		.cfi_endproc
 462              	.LFE67:
 463              		.size	writeVoltRange, .-writeVoltRange
 464              		.section	.text.motion,"ax",%progbits
 465              		.align	2
 466              		.global	motion
 467              		.thumb
ARM GAS  C:\Users\lenovo\AppData\Local\Temp\cctHFFKY.s 			page 12


 468              		.thumb_func
 469              		.type	motion, %function
 470              	motion:
 471              	.LFB68:
 149:.\main.c      **** }
 150:.\main.c      **** 
 151:.\main.c      **** //舵机运动
 152:.\main.c      **** void motion(uint8 id, uint16 angle, uint16 speed)
 153:.\main.c      **** {
 472              		.loc 1 153 0
 473              		.cfi_startproc
 474              		@ args = 0, pretend = 0, frame = 0
 475              		@ frame_needed = 0, uses_anonymous_args = 0
 476              	.LVL46:
 477 0000 70B5     		push	{r4, r5, r6, lr}
 478              		.cfi_def_cfa_offset 16
 479              		.cfi_offset 4, -16
 480              		.cfi_offset 5, -12
 481              		.cfi_offset 6, -8
 482              		.cfi_offset 14, -4
 483 0002 0646     		mov	r6, r0
 484 0004 0C46     		mov	r4, r1
 485 0006 1546     		mov	r5, r2
 154:.\main.c      **** 
 155:.\main.c      ****     Cmd2Robot[0] = 0xFF;
 486              		.loc 1 155 0
 487 0008 194B     		ldr	r3, .L45
 488 000a FF22     		movs	r2, #255
 489              	.LVL47:
 490 000c 1A70     		strb	r2, [r3]
 156:.\main.c      ****     Cmd2Robot[1] = 0xFF;
 491              		.loc 1 156 0
 492 000e 5A70     		strb	r2, [r3, #1]
 157:.\main.c      ****     Cmd2Robot[2] = id;
 493              		.loc 1 157 0
 494 0010 9870     		strb	r0, [r3, #2]
 158:.\main.c      ****     Cmd2Robot[3] = 0x07;
 495              		.loc 1 158 0
 496 0012 0722     		movs	r2, #7
 497 0014 DA70     		strb	r2, [r3, #3]
 159:.\main.c      ****     Cmd2Robot[4] = 0x03;
 498              		.loc 1 159 0
 499 0016 0322     		movs	r2, #3
 500 0018 1A71     		strb	r2, [r3, #4]
 160:.\main.c      ****     Cmd2Robot[5] = 0x1E;
 501              		.loc 1 160 0
 502 001a 1E22     		movs	r2, #30
 503 001c 5A71     		strb	r2, [r3, #5]
 161:.\main.c      ****     Cmd2Robot[6] = angle & 0x00FF;
 504              		.loc 1 161 0
 505 001e 9971     		strb	r1, [r3, #6]
 162:.\main.c      ****     Cmd2Robot[7] = (angle & 0xFF00) >> 8;
 506              		.loc 1 162 0
 507 0020 0A0A     		lsrs	r2, r1, #8
 508 0022 DA71     		strb	r2, [r3, #7]
 163:.\main.c      ****     Cmd2Robot[8] = speed & 0x00FF;
 509              		.loc 1 163 0
ARM GAS  C:\Users\lenovo\AppData\Local\Temp\cctHFFKY.s 			page 13


 510 0024 1D72     		strb	r5, [r3, #8]
 164:.\main.c      ****     Cmd2Robot[9] = (speed & 0xFF00) >> 8;
 511              		.loc 1 164 0
 512 0026 2A0A     		lsrs	r2, r5, #8
 513 0028 5A72     		strb	r2, [r3, #9]
 514              	.LVL48:
 165:.\main.c      ****     char temp = 0x00;
 166:.\main.c      ****     int i = 2;
 515              		.loc 1 166 0
 516 002a 0222     		movs	r2, #2
 165:.\main.c      ****     char temp = 0x00;
 517              		.loc 1 165 0
 518 002c 0023     		movs	r3, #0
 167:.\main.c      ****     for(; i < 10 ; i++)
 519              		.loc 1 167 0
 520 002e 04E0     		b	.L38
 521              	.LVL49:
 522              	.L39:
 168:.\main.c      ****     {
 169:.\main.c      ****         temp += Cmd2Robot[i];
 523              		.loc 1 169 0 discriminator 2
 524 0030 0F49     		ldr	r1, .L45
 525 0032 895C     		ldrb	r1, [r1, r2]	@ zero_extendqisi2
 526 0034 0B44     		add	r3, r3, r1
 527              	.LVL50:
 528 0036 DBB2     		uxtb	r3, r3
 529              	.LVL51:
 167:.\main.c      ****     for(; i < 10 ; i++)
 530              		.loc 1 167 0 discriminator 2
 531 0038 0132     		adds	r2, r2, #1
 532              	.LVL52:
 533              	.L38:
 167:.\main.c      ****     for(; i < 10 ; i++)
 534              		.loc 1 167 0 is_stmt 0 discriminator 1
 535 003a 092A     		cmp	r2, #9
 536 003c F8DD     		ble	.L39
 170:.\main.c      ****     }
 171:.\main.c      ****     Cmd2Robot[10] = ~temp;
 537              		.loc 1 171 0 is_stmt 1
 538 003e 0C48     		ldr	r0, .L45
 539              	.LVL53:
 540 0040 DB43     		mvns	r3, r3
 541              	.LVL54:
 542 0042 8372     		strb	r3, [r0, #10]
 172:.\main.c      **** 
 173:.\main.c      ****     UART_PutArray(Cmd2Robot,11);
 543              		.loc 1 173 0
 544 0044 0B21     		movs	r1, #11
 545 0046 FFF7FEFF 		bl	UART_PutArray
 546              	.LVL55:
 174:.\main.c      **** 	
 175:.\main.c      **** 	if(id != broadcastID){
 547              		.loc 1 175 0
 548 004a FE2E     		cmp	r6, #254
 549 004c 0CD0     		beq	.L43
 176:.\main.c      **** 		motorinfo[id].dest_angle = angle;
 550              		.loc 1 176 0
ARM GAS  C:\Users\lenovo\AppData\Local\Temp\cctHFFKY.s 			page 14


 551 004e 094B     		ldr	r3, .L45+4
 552 0050 03EB0616 		add	r6, r3, r6, lsl #4
 553 0054 F480     		strh	r4, [r6, #6]	@ movhi
 177:.\main.c      **** 		motorinfo[id].dest_velo = speed;
 554              		.loc 1 177 0
 555 0056 3581     		strh	r5, [r6, #8]	@ movhi
 556 0058 70BD     		pop	{r4, r5, r6, pc}
 557              	.LVL56:
 558              	.L42:
 178:.\main.c      **** 	}
 179:.\main.c      **** 	else{
 180:.\main.c      **** 		for(i=0;i<4;i++){
 181:.\main.c      **** 			motorinfo[i].dest_angle = angle;
 559              		.loc 1 181 0 discriminator 3
 560 005a 064B     		ldr	r3, .L45+4
 561 005c 03EB0213 		add	r3, r3, r2, lsl #4
 562 0060 DC80     		strh	r4, [r3, #6]	@ movhi
 182:.\main.c      **** 			motorinfo[i].dest_velo = speed;
 563              		.loc 1 182 0 discriminator 3
 564 0062 1D81     		strh	r5, [r3, #8]	@ movhi
 180:.\main.c      **** 			motorinfo[i].dest_angle = angle;
 565              		.loc 1 180 0 discriminator 3
 566 0064 0132     		adds	r2, r2, #1
 567              	.LVL57:
 568 0066 00E0     		b	.L40
 569              	.LVL58:
 570              	.L43:
 571 0068 0022     		movs	r2, #0
 572              	.L40:
 573              	.LVL59:
 180:.\main.c      **** 			motorinfo[i].dest_angle = angle;
 574              		.loc 1 180 0 is_stmt 0 discriminator 1
 575 006a 032A     		cmp	r2, #3
 576 006c F5DD     		ble	.L42
 577 006e 70BD     		pop	{r4, r5, r6, pc}
 578              	.L46:
 579              		.align	2
 580              	.L45:
 581 0070 00000000 		.word	Cmd2Robot
 582 0074 00000000 		.word	motorinfo
 583              		.cfi_endproc
 584              	.LFE68:
 585              		.size	motion, .-motion
 586              		.section	.text.reset,"ax",%progbits
 587              		.align	2
 588              		.global	reset
 589              		.thumb
 590              		.thumb_func
 591              		.type	reset, %function
 592              	reset:
 593              	.LFB69:
 183:.\main.c      **** 		}
 184:.\main.c      **** 	}
 185:.\main.c      **** }
 186:.\main.c      **** 
 187:.\main.c      **** //复位
 188:.\main.c      **** void reset(uint8 id)
ARM GAS  C:\Users\lenovo\AppData\Local\Temp\cctHFFKY.s 			page 15


 189:.\main.c      **** {
 594              		.loc 1 189 0 is_stmt 1
 595              		.cfi_startproc
 596              		@ args = 0, pretend = 0, frame = 0
 597              		@ frame_needed = 0, uses_anonymous_args = 0
 598              	.LVL60:
 599 0000 08B5     		push	{r3, lr}
 600              		.cfi_def_cfa_offset 8
 601              		.cfi_offset 3, -8
 602              		.cfi_offset 14, -4
 190:.\main.c      ****     Cmd2Robot[0] = 0xFF;
 603              		.loc 1 190 0
 604 0002 074B     		ldr	r3, .L49
 605 0004 FF22     		movs	r2, #255
 606 0006 1A70     		strb	r2, [r3]
 191:.\main.c      ****     Cmd2Robot[1] = 0xFF;
 607              		.loc 1 191 0
 608 0008 5A70     		strb	r2, [r3, #1]
 192:.\main.c      ****     Cmd2Robot[2] = id;
 609              		.loc 1 192 0
 610 000a 9870     		strb	r0, [r3, #2]
 193:.\main.c      ****     Cmd2Robot[3] = 0x02;
 611              		.loc 1 193 0
 612 000c 0222     		movs	r2, #2
 613 000e DA70     		strb	r2, [r3, #3]
 194:.\main.c      ****     Cmd2Robot[4] = 0x06;
 614              		.loc 1 194 0
 615 0010 0621     		movs	r1, #6
 616 0012 1971     		strb	r1, [r3, #4]
 195:.\main.c      ****     Cmd2Robot[5] = 0xF7;
 617              		.loc 1 195 0
 618 0014 F722     		movs	r2, #247
 619 0016 5A71     		strb	r2, [r3, #5]
 196:.\main.c      ****     UART_PutArray(Cmd2Robot,6);
 620              		.loc 1 196 0
 621 0018 1846     		mov	r0, r3
 622              	.LVL61:
 623 001a FFF7FEFF 		bl	UART_PutArray
 624              	.LVL62:
 625 001e 08BD     		pop	{r3, pc}
 626              	.L50:
 627              		.align	2
 628              	.L49:
 629 0020 00000000 		.word	Cmd2Robot
 630              		.cfi_endproc
 631              	.LFE69:
 632              		.size	reset, .-reset
 633              		.section	.text.Reg_Write_angle,"ax",%progbits
 634              		.align	2
 635              		.global	Reg_Write_angle
 636              		.thumb
 637              		.thumb_func
 638              		.type	Reg_Write_angle, %function
 639              	Reg_Write_angle:
 640              	.LFB70:
 197:.\main.c      **** }
 198:.\main.c      **** 
ARM GAS  C:\Users\lenovo\AppData\Local\Temp\cctHFFKY.s 			page 16


 199:.\main.c      **** //同时调整两个舵机分别到某一角度(异步写入）
 200:.\main.c      **** void Reg_Write_angle(uint8 id, uint16 angle)
 201:.\main.c      **** {
 641              		.loc 1 201 0
 642              		.cfi_startproc
 643              		@ args = 0, pretend = 0, frame = 0
 644              		@ frame_needed = 0, uses_anonymous_args = 0
 645              	.LVL63:
 646 0000 38B5     		push	{r3, r4, r5, lr}
 647              		.cfi_def_cfa_offset 16
 648              		.cfi_offset 3, -16
 649              		.cfi_offset 4, -12
 650              		.cfi_offset 5, -8
 651              		.cfi_offset 14, -4
 652 0002 0546     		mov	r5, r0
 653 0004 0C46     		mov	r4, r1
 202:.\main.c      ****     //第一个ID
 203:.\main.c      ****     Cmd2Robot[0] = 0xFF;
 654              		.loc 1 203 0
 655 0006 0E48     		ldr	r0, .L53
 656              	.LVL64:
 657 0008 FF23     		movs	r3, #255
 658 000a 0370     		strb	r3, [r0]
 204:.\main.c      ****     Cmd2Robot[1] = 0xFF;
 659              		.loc 1 204 0
 660 000c 4370     		strb	r3, [r0, #1]
 205:.\main.c      ****     Cmd2Robot[2] = id;
 661              		.loc 1 205 0
 662 000e 8570     		strb	r5, [r0, #2]
 206:.\main.c      ****     Cmd2Robot[3] = 0x05; //length
 663              		.loc 1 206 0
 664 0010 0523     		movs	r3, #5
 665 0012 C370     		strb	r3, [r0, #3]
 207:.\main.c      ****     Cmd2Robot[4] = 0x04; //异步写入
 666              		.loc 1 207 0
 667 0014 0423     		movs	r3, #4
 668 0016 0371     		strb	r3, [r0, #4]
 208:.\main.c      ****     Cmd2Robot[5] = 0x1E;
 669              		.loc 1 208 0
 670 0018 1E23     		movs	r3, #30
 671 001a 4371     		strb	r3, [r0, #5]
 209:.\main.c      ****     Cmd2Robot[6] = angle & 0xFF;
 672              		.loc 1 209 0
 673 001c CBB2     		uxtb	r3, r1
 674 001e 8371     		strb	r3, [r0, #6]
 210:.\main.c      ****     Cmd2Robot[7] = (angle & 0xFF00) >> 8;
 675              		.loc 1 210 0
 676 0020 090A     		lsrs	r1, r1, #8
 677              	.LVL65:
 678 0022 C171     		strb	r1, [r0, #7]
 211:.\main.c      ****     Cmd2Robot[8] = ~(Cmd2Robot[2] + Cmd2Robot[3] + Cmd2Robot[4] + Cmd2Robot[5] + Cmd2Robot[6] + Cmd
 679              		.loc 1 211 0
 680 0024 05F12702 		add	r2, r5, #39
 681 0028 1344     		add	r3, r3, r2
 682 002a 0B44     		add	r3, r3, r1
 683 002c DB43     		mvns	r3, r3
 684 002e 0372     		strb	r3, [r0, #8]
ARM GAS  C:\Users\lenovo\AppData\Local\Temp\cctHFFKY.s 			page 17


 212:.\main.c      ****     UART_PutArray(Cmd2Robot,9);
 685              		.loc 1 212 0
 686 0030 0921     		movs	r1, #9
 687 0032 FFF7FEFF 		bl	UART_PutArray
 688              	.LVL66:
 213:.\main.c      ****     
 214:.\main.c      ****     motorinfo[id].dest_angle = angle;
 689              		.loc 1 214 0
 690 0036 0348     		ldr	r0, .L53+4
 691 0038 00EB0510 		add	r0, r0, r5, lsl #4
 692 003c C480     		strh	r4, [r0, #6]	@ movhi
 693 003e 38BD     		pop	{r3, r4, r5, pc}
 694              	.L54:
 695              		.align	2
 696              	.L53:
 697 0040 00000000 		.word	Cmd2Robot
 698 0044 00000000 		.word	motorinfo
 699              		.cfi_endproc
 700              	.LFE70:
 701              		.size	Reg_Write_angle, .-Reg_Write_angle
 702              		.section	.text.WriteSpeed,"ax",%progbits
 703              		.align	2
 704              		.global	WriteSpeed
 705              		.thumb
 706              		.thumb_func
 707              		.type	WriteSpeed, %function
 708              	WriteSpeed:
 709              	.LFB71:
 215:.\main.c      ****     
 216:.\main.c      **** }
 217:.\main.c      **** 
 218:.\main.c      **** void WriteSpeed(uint8 id, uint16 speed)
 219:.\main.c      **** {
 710              		.loc 1 219 0
 711              		.cfi_startproc
 712              		@ args = 0, pretend = 0, frame = 0
 713              		@ frame_needed = 0, uses_anonymous_args = 0
 714              	.LVL67:
 715 0000 08B5     		push	{r3, lr}
 716              		.cfi_def_cfa_offset 8
 717              		.cfi_offset 3, -8
 718              		.cfi_offset 14, -4
 220:.\main.c      ****     Cmd2Robot[0] = 0xFF;
 719              		.loc 1 220 0
 720 0002 0F4B     		ldr	r3, .L59
 721 0004 FF22     		movs	r2, #255
 722 0006 1A70     		strb	r2, [r3]
 221:.\main.c      ****     Cmd2Robot[1] = 0xFF;
 723              		.loc 1 221 0
 724 0008 5A70     		strb	r2, [r3, #1]
 222:.\main.c      ****     Cmd2Robot[2] = id;
 725              		.loc 1 222 0
 726 000a 9870     		strb	r0, [r3, #2]
 223:.\main.c      ****     Cmd2Robot[3] = 0x05;
 727              		.loc 1 223 0
 728 000c 0522     		movs	r2, #5
 729 000e DA70     		strb	r2, [r3, #3]
ARM GAS  C:\Users\lenovo\AppData\Local\Temp\cctHFFKY.s 			page 18


 224:.\main.c      ****     Cmd2Robot[4] = 0x03;
 730              		.loc 1 224 0
 731 0010 0322     		movs	r2, #3
 732 0012 1A71     		strb	r2, [r3, #4]
 225:.\main.c      ****     Cmd2Robot[5] = 0x20;
 733              		.loc 1 225 0
 734 0014 2022     		movs	r2, #32
 735 0016 5A71     		strb	r2, [r3, #5]
 226:.\main.c      ****     Cmd2Robot[6] = speed & 0x00FF;
 736              		.loc 1 226 0
 737 0018 9971     		strb	r1, [r3, #6]
 227:.\main.c      ****     Cmd2Robot[7] = (speed & 0xFF00) >> 8;
 738              		.loc 1 227 0
 739 001a 090A     		lsrs	r1, r1, #8
 740              	.LVL68:
 741 001c D971     		strb	r1, [r3, #7]
 742              	.LVL69:
 228:.\main.c      ****     
 229:.\main.c      ****     char temp = 0x00;
 230:.\main.c      ****     int i = 2;
 743              		.loc 1 230 0
 744 001e 0222     		movs	r2, #2
 229:.\main.c      ****     int i = 2;
 745              		.loc 1 229 0
 746 0020 0023     		movs	r3, #0
 231:.\main.c      ****     for(; i < 8 ; i++)
 747              		.loc 1 231 0
 748 0022 04E0     		b	.L56
 749              	.LVL70:
 750              	.L57:
 232:.\main.c      ****     {
 233:.\main.c      ****         temp += Cmd2Robot[i];
 751              		.loc 1 233 0 discriminator 2
 752 0024 0649     		ldr	r1, .L59
 753 0026 895C     		ldrb	r1, [r1, r2]	@ zero_extendqisi2
 754 0028 0B44     		add	r3, r3, r1
 755              	.LVL71:
 756 002a DBB2     		uxtb	r3, r3
 757              	.LVL72:
 231:.\main.c      ****     for(; i < 8 ; i++)
 758              		.loc 1 231 0 discriminator 2
 759 002c 0132     		adds	r2, r2, #1
 760              	.LVL73:
 761              	.L56:
 231:.\main.c      ****     for(; i < 8 ; i++)
 762              		.loc 1 231 0 is_stmt 0 discriminator 1
 763 002e 072A     		cmp	r2, #7
 764 0030 F8DD     		ble	.L57
 234:.\main.c      ****     }
 235:.\main.c      ****     Cmd2Robot[8] = ~temp;
 765              		.loc 1 235 0 is_stmt 1
 766 0032 0348     		ldr	r0, .L59
 767              	.LVL74:
 768 0034 DB43     		mvns	r3, r3
 769              	.LVL75:
 770 0036 0372     		strb	r3, [r0, #8]
 236:.\main.c      **** 
ARM GAS  C:\Users\lenovo\AppData\Local\Temp\cctHFFKY.s 			page 19


 237:.\main.c      ****     UART_PutArray(Cmd2Robot,9);
 771              		.loc 1 237 0
 772 0038 0921     		movs	r1, #9
 773 003a FFF7FEFF 		bl	UART_PutArray
 774              	.LVL76:
 775 003e 08BD     		pop	{r3, pc}
 776              	.L60:
 777              		.align	2
 778              	.L59:
 779 0040 00000000 		.word	Cmd2Robot
 780              		.cfi_endproc
 781              	.LFE71:
 782              		.size	WriteSpeed, .-WriteSpeed
 783              		.section	.text.action,"ax",%progbits
 784              		.align	2
 785              		.global	action
 786              		.thumb
 787              		.thumb_func
 788              		.type	action, %function
 789              	action:
 790              	.LFB72:
 238:.\main.c      **** }
 239:.\main.c      **** 
 240:.\main.c      **** //执行异步写指令
 241:.\main.c      **** void action()
 242:.\main.c      **** {
 791              		.loc 1 242 0
 792              		.cfi_startproc
 793              		@ args = 0, pretend = 0, frame = 0
 794              		@ frame_needed = 0, uses_anonymous_args = 0
 795 0000 08B5     		push	{r3, lr}
 796              		.cfi_def_cfa_offset 8
 797              		.cfi_offset 3, -8
 798              		.cfi_offset 14, -4
 243:.\main.c      ****     Cmd2Robot[0] = 0xFF;
 799              		.loc 1 243 0
 800 0002 0848     		ldr	r0, .L63
 801 0004 FF23     		movs	r3, #255
 802 0006 0370     		strb	r3, [r0]
 244:.\main.c      ****     Cmd2Robot[1] = 0xFF;
 803              		.loc 1 244 0
 804 0008 4370     		strb	r3, [r0, #1]
 245:.\main.c      ****     Cmd2Robot[2] = 0xFE; //广播
 805              		.loc 1 245 0
 806 000a FE23     		movs	r3, #254
 807 000c 8370     		strb	r3, [r0, #2]
 246:.\main.c      ****     Cmd2Robot[3] = 0x02;
 808              		.loc 1 246 0
 809 000e 0223     		movs	r3, #2
 810 0010 C370     		strb	r3, [r0, #3]
 247:.\main.c      ****     Cmd2Robot[4] = 0x05; //指令
 811              		.loc 1 247 0
 812 0012 0523     		movs	r3, #5
 813 0014 0371     		strb	r3, [r0, #4]
 248:.\main.c      ****     Cmd2Robot[5] = 0xFA;
 814              		.loc 1 248 0
 815 0016 FA23     		movs	r3, #250
ARM GAS  C:\Users\lenovo\AppData\Local\Temp\cctHFFKY.s 			page 20


 816 0018 4371     		strb	r3, [r0, #5]
 249:.\main.c      ****     UART_PutArray(Cmd2Robot,6);
 817              		.loc 1 249 0
 818 001a 0621     		movs	r1, #6
 819 001c FFF7FEFF 		bl	UART_PutArray
 820              	.LVL77:
 821 0020 08BD     		pop	{r3, pc}
 822              	.L64:
 823 0022 00BF     		.align	2
 824              	.L63:
 825 0024 00000000 		.word	Cmd2Robot
 826              		.cfi_endproc
 827              	.LFE72:
 828              		.size	action, .-action
 829              		.section	.text.acc_ctl,"ax",%progbits
 830              		.align	2
 831              		.global	acc_ctl
 832              		.thumb
 833              		.thumb_func
 834              		.type	acc_ctl, %function
 835              	acc_ctl:
 836              	.LFB73:
 250:.\main.c      **** }
 251:.\main.c      **** 
 252:.\main.c      **** //加速度与减速度控制
 253:.\main.c      **** void acc_ctl(uint8 id,uint8 p_acc, uint8 m_acc)
 254:.\main.c      **** {
 837              		.loc 1 254 0
 838              		.cfi_startproc
 839              		@ args = 0, pretend = 0, frame = 0
 840              		@ frame_needed = 0, uses_anonymous_args = 0
 841              	.LVL78:
 842 0000 70B5     		push	{r4, r5, r6, lr}
 843              		.cfi_def_cfa_offset 16
 844              		.cfi_offset 4, -16
 845              		.cfi_offset 5, -12
 846              		.cfi_offset 6, -8
 847              		.cfi_offset 14, -4
 848 0002 0646     		mov	r6, r0
 849 0004 0C46     		mov	r4, r1
 850 0006 1546     		mov	r5, r2
 255:.\main.c      ****     Cmd2Robot[0] = 0xFF;
 851              		.loc 1 255 0
 852 0008 1448     		ldr	r0, .L71
 853              	.LVL79:
 854 000a FF23     		movs	r3, #255
 855 000c 0370     		strb	r3, [r0]
 256:.\main.c      ****     Cmd2Robot[1] = 0xFF;
 856              		.loc 1 256 0
 857 000e 4370     		strb	r3, [r0, #1]
 257:.\main.c      ****     Cmd2Robot[2] = id;
 858              		.loc 1 257 0
 859 0010 8670     		strb	r6, [r0, #2]
 258:.\main.c      ****     Cmd2Robot[3] = 0x05; //length
 860              		.loc 1 258 0
 861 0012 0523     		movs	r3, #5
 862 0014 C370     		strb	r3, [r0, #3]
ARM GAS  C:\Users\lenovo\AppData\Local\Temp\cctHFFKY.s 			page 21


 259:.\main.c      ****     Cmd2Robot[4] = 0x03;//写入指令
 863              		.loc 1 259 0
 864 0016 0323     		movs	r3, #3
 865 0018 0371     		strb	r3, [r0, #4]
 260:.\main.c      ****     Cmd2Robot[5] = 0x30;
 866              		.loc 1 260 0
 867 001a 3023     		movs	r3, #48
 868 001c 4371     		strb	r3, [r0, #5]
 261:.\main.c      ****     Cmd2Robot[6] = p_acc;
 869              		.loc 1 261 0
 870 001e 8171     		strb	r1, [r0, #6]
 262:.\main.c      ****     Cmd2Robot[7] = m_acc;
 871              		.loc 1 262 0
 872 0020 C271     		strb	r2, [r0, #7]
 263:.\main.c      ****     Cmd2Robot[8] = ~(Cmd2Robot[2] + Cmd2Robot[3] + Cmd2Robot[4] + Cmd2Robot[5] + Cmd2Robot[6] + Cmd
 873              		.loc 1 263 0
 874 0022 06F13803 		add	r3, r6, #56
 875 0026 0B44     		add	r3, r3, r1
 876 0028 1344     		add	r3, r3, r2
 877 002a DB43     		mvns	r3, r3
 878 002c 0372     		strb	r3, [r0, #8]
 264:.\main.c      ****     UART_PutArray(Cmd2Robot,9);
 879              		.loc 1 264 0
 880 002e 0921     		movs	r1, #9
 881              	.LVL80:
 882 0030 FFF7FEFF 		bl	UART_PutArray
 883              	.LVL81:
 265:.\main.c      **** 	
 266:.\main.c      **** 	if(id != broadcastID){
 884              		.loc 1 266 0
 885 0034 FE2E     		cmp	r6, #254
 886 0036 0CD0     		beq	.L69
 267:.\main.c      **** 		motorinfo[id].plus_acc = p_acc;
 887              		.loc 1 267 0
 888 0038 094B     		ldr	r3, .L71+4
 889 003a 03EB0616 		add	r6, r3, r6, lsl #4
 890 003e B472     		strb	r4, [r6, #10]
 268:.\main.c      **** 		motorinfo[id].minus_acc = m_acc;
 891              		.loc 1 268 0
 892 0040 F572     		strb	r5, [r6, #11]
 893 0042 70BD     		pop	{r4, r5, r6, pc}
 894              	.LVL82:
 895              	.L68:
 896              	.LBB6:
 269:.\main.c      **** 	}
 270:.\main.c      **** 	else{
 271:.\main.c      ****         int i;
 272:.\main.c      **** 		for(i=0;i<4;i++){
 273:.\main.c      **** 			motorinfo[i].plus_acc = p_acc;
 897              		.loc 1 273 0 discriminator 3
 898 0044 064B     		ldr	r3, .L71+4
 899 0046 03EB0213 		add	r3, r3, r2, lsl #4
 900 004a 9C72     		strb	r4, [r3, #10]
 274:.\main.c      **** 			motorinfo[i].minus_acc = m_acc;
 901              		.loc 1 274 0 discriminator 3
 902 004c DD72     		strb	r5, [r3, #11]
 272:.\main.c      **** 			motorinfo[i].plus_acc = p_acc;
ARM GAS  C:\Users\lenovo\AppData\Local\Temp\cctHFFKY.s 			page 22


 903              		.loc 1 272 0 discriminator 3
 904 004e 0132     		adds	r2, r2, #1
 905              	.LVL83:
 906 0050 00E0     		b	.L66
 907              	.LVL84:
 908              	.L69:
 909              	.LBE6:
 910 0052 0022     		movs	r2, #0
 911              	.L66:
 912              	.LVL85:
 913              	.LBB7:
 272:.\main.c      **** 			motorinfo[i].plus_acc = p_acc;
 914              		.loc 1 272 0 is_stmt 0 discriminator 1
 915 0054 032A     		cmp	r2, #3
 916 0056 F5DD     		ble	.L68
 917 0058 70BD     		pop	{r4, r5, r6, pc}
 918              	.L72:
 919 005a 00BF     		.align	2
 920              	.L71:
 921 005c 00000000 		.word	Cmd2Robot
 922 0060 00000000 		.word	motorinfo
 923              	.LBE7:
 924              		.cfi_endproc
 925              	.LFE73:
 926              		.size	acc_ctl, .-acc_ctl
 927              		.section	.text.read_current_position,"ax",%progbits
 928              		.align	2
 929              		.global	read_current_position
 930              		.thumb
 931              		.thumb_func
 932              		.type	read_current_position, %function
 933              	read_current_position:
 934              	.LFB74:
 275:.\main.c      **** 		}
 276:.\main.c      **** 	}
 277:.\main.c      **** }
 278:.\main.c      **** 
 279:.\main.c      **** //读取当前位置
 280:.\main.c      **** void read_current_position(uint8 id)
 281:.\main.c      **** {
 935              		.loc 1 281 0 is_stmt 1
 936              		.cfi_startproc
 937              		@ args = 0, pretend = 0, frame = 0
 938              		@ frame_needed = 0, uses_anonymous_args = 0
 939              	.LVL86:
 940 0000 08B5     		push	{r3, lr}
 941              		.cfi_def_cfa_offset 8
 942              		.cfi_offset 3, -8
 943              		.cfi_offset 14, -4
 282:.\main.c      ****     Cmd2Robot[0] = 0xFF;
 944              		.loc 1 282 0
 945 0002 0B4B     		ldr	r3, .L75
 946 0004 FF22     		movs	r2, #255
 947 0006 1A70     		strb	r2, [r3]
 283:.\main.c      ****     Cmd2Robot[1] = 0xFF;
 948              		.loc 1 283 0
 949 0008 5A70     		strb	r2, [r3, #1]
ARM GAS  C:\Users\lenovo\AppData\Local\Temp\cctHFFKY.s 			page 23


 284:.\main.c      ****     Cmd2Robot[2] = id;
 950              		.loc 1 284 0
 951 000a 9870     		strb	r0, [r3, #2]
 285:.\main.c      ****     Cmd2Robot[3] = 0x04;  //length
 952              		.loc 1 285 0
 953 000c 0422     		movs	r2, #4
 954 000e DA70     		strb	r2, [r3, #3]
 286:.\main.c      ****     Cmd2Robot[4] = 0x02; //读指令
 955              		.loc 1 286 0
 956 0010 0222     		movs	r2, #2
 957 0012 1A71     		strb	r2, [r3, #4]
 287:.\main.c      ****     Cmd2Robot[5] = 0x24;
 958              		.loc 1 287 0
 959 0014 2421     		movs	r1, #36
 960 0016 5971     		strb	r1, [r3, #5]
 288:.\main.c      ****     Cmd2Robot[6] = 0x02; //读取数据长度
 961              		.loc 1 288 0
 962 0018 9A71     		strb	r2, [r3, #6]
 289:.\main.c      ****     Cmd2Robot[7] = ~(Cmd2Robot[2] + Cmd2Robot[3] + Cmd2Robot[4] +Cmd2Robot[5] + Cmd2Robot[6]);
 963              		.loc 1 289 0
 964 001a 2C30     		adds	r0, r0, #44
 965              	.LVL87:
 966 001c C043     		mvns	r0, r0
 967 001e D871     		strb	r0, [r3, #7]
 290:.\main.c      ****     UART_PutArray(Cmd2Robot,8);
 968              		.loc 1 290 0
 969 0020 1846     		mov	r0, r3
 970 0022 0821     		movs	r1, #8
 971 0024 FFF7FEFF 		bl	UART_PutArray
 972              	.LVL88:
 291:.\main.c      ****     quesnum = 1;
 973              		.loc 1 291 0
 974 0028 0122     		movs	r2, #1
 975 002a 024B     		ldr	r3, .L75+4
 976 002c 1A70     		strb	r2, [r3]
 977 002e 08BD     		pop	{r3, pc}
 978              	.L76:
 979              		.align	2
 980              	.L75:
 981 0030 00000000 		.word	Cmd2Robot
 982 0034 00000000 		.word	.LANCHOR0
 983              		.cfi_endproc
 984              	.LFE74:
 985              		.size	read_current_position, .-read_current_position
 986              		.section	.text.read_current_v,"ax",%progbits
 987              		.align	2
 988              		.global	read_current_v
 989              		.thumb
 990              		.thumb_func
 991              		.type	read_current_v, %function
 992              	read_current_v:
 993              	.LFB75:
 292:.\main.c      ****     
 293:.\main.c      **** }
 294:.\main.c      **** //读当前速度
 295:.\main.c      **** void read_current_v(uint8 id)
 296:.\main.c      **** {
ARM GAS  C:\Users\lenovo\AppData\Local\Temp\cctHFFKY.s 			page 24


 994              		.loc 1 296 0
 995              		.cfi_startproc
 996              		@ args = 0, pretend = 0, frame = 0
 997              		@ frame_needed = 0, uses_anonymous_args = 0
 998              	.LVL89:
 999 0000 10B5     		push	{r4, lr}
 1000              		.cfi_def_cfa_offset 8
 1001              		.cfi_offset 4, -8
 1002              		.cfi_offset 14, -4
 297:.\main.c      ****     Cmd2Robot[0] = 0xFF;
 1003              		.loc 1 297 0
 1004 0002 0B4B     		ldr	r3, .L79
 1005 0004 FF22     		movs	r2, #255
 1006 0006 1A70     		strb	r2, [r3]
 298:.\main.c      ****     Cmd2Robot[1] = 0xFF;
 1007              		.loc 1 298 0
 1008 0008 5A70     		strb	r2, [r3, #1]
 299:.\main.c      ****     Cmd2Robot[2] = id;
 1009              		.loc 1 299 0
 1010 000a 9870     		strb	r0, [r3, #2]
 300:.\main.c      ****     Cmd2Robot[3] = 0x04; //length
 1011              		.loc 1 300 0
 1012 000c 0422     		movs	r2, #4
 1013 000e DA70     		strb	r2, [r3, #3]
 301:.\main.c      ****     Cmd2Robot[4] = 0x02; //读指令
 1014              		.loc 1 301 0
 1015 0010 0224     		movs	r4, #2
 1016 0012 1C71     		strb	r4, [r3, #4]
 302:.\main.c      ****     Cmd2Robot[5] = 0x26;
 1017              		.loc 1 302 0
 1018 0014 2622     		movs	r2, #38
 1019 0016 5A71     		strb	r2, [r3, #5]
 303:.\main.c      ****     Cmd2Robot[6] = 0x02;
 1020              		.loc 1 303 0
 1021 0018 9C71     		strb	r4, [r3, #6]
 304:.\main.c      ****     Cmd2Robot[7] = ~(Cmd2Robot[2] + Cmd2Robot[3] + Cmd2Robot[4] +Cmd2Robot[5] + Cmd2Robot[6]);
 1022              		.loc 1 304 0
 1023 001a 2E30     		adds	r0, r0, #46
 1024              	.LVL90:
 1025 001c C043     		mvns	r0, r0
 1026 001e D871     		strb	r0, [r3, #7]
 305:.\main.c      ****     UART_PutArray(Cmd2Robot,8);
 1027              		.loc 1 305 0
 1028 0020 1846     		mov	r0, r3
 1029 0022 0821     		movs	r1, #8
 1030 0024 FFF7FEFF 		bl	UART_PutArray
 1031              	.LVL91:
 306:.\main.c      ****     quesnum = 2;
 1032              		.loc 1 306 0
 1033 0028 024B     		ldr	r3, .L79+4
 1034 002a 1C70     		strb	r4, [r3]
 1035 002c 10BD     		pop	{r4, pc}
 1036              	.L80:
 1037 002e 00BF     		.align	2
 1038              	.L79:
 1039 0030 00000000 		.word	Cmd2Robot
 1040 0034 00000000 		.word	.LANCHOR0
ARM GAS  C:\Users\lenovo\AppData\Local\Temp\cctHFFKY.s 			page 25


 1041              		.cfi_endproc
 1042              	.LFE75:
 1043              		.size	read_current_v, .-read_current_v
 1044              		.section	.text.printError,"ax",%progbits
 1045              		.align	2
 1046              		.global	printError
 1047              		.thumb
 1048              		.thumb_func
 1049              		.type	printError, %function
 1050              	printError:
 1051              	.LFB76:
 307:.\main.c      **** }
 308:.\main.c      **** /*
 309:.\main.c      **** //REG_WRITE标志
 310:.\main.c      **** void read_REG_WRITE_FLGA()
 311:.\main.c      **** {
 312:.\main.c      ****     Cmd2Robot[0] = 0xFF;
 313:.\main.c      ****     Cmd2Robot[1] = 0xFF;
 314:.\main.c      ****     Cmd2Robot[2] = 
 315:.\main.c      **** 
 316:.\main.c      **** }*/
 317:.\main.c      **** 
 318:.\main.c      **** 
 319:.\main.c      **** //向蓝牙打印错误
 320:.\main.c      **** void printError(uint8 id, uint8 errornum){
 1052              		.loc 1 320 0
 1053              		.cfi_startproc
 1054              		@ args = 0, pretend = 0, frame = 16
 1055              		@ frame_needed = 0, uses_anonymous_args = 0
 1056              	.LVL92:
 1057 0000 30B5     		push	{r4, r5, lr}
 1058              		.cfi_def_cfa_offset 12
 1059              		.cfi_offset 4, -12
 1060              		.cfi_offset 5, -8
 1061              		.cfi_offset 14, -4
 1062 0002 85B0     		sub	sp, sp, #20
 1063              		.cfi_def_cfa_offset 32
 1064 0004 0546     		mov	r5, r0
 1065 0006 0C46     		mov	r4, r1
 321:.\main.c      ****     char msg[10] = " error :";
 1066              		.loc 1 321 0
 1067 0008 244A     		ldr	r2, .L89
 1068 000a 01AB     		add	r3, sp, #4
 1069 000c 07CA     		ldmia	r2, {r0, r1, r2}
 1070              	.LVL93:
 1071 000e 03C3     		stmia	r3!, {r0, r1}
 1072 0010 1A70     		strb	r2, [r3]
 1073 0012 0023     		movs	r3, #0
 1074 0014 8DF80D30 		strb	r3, [sp, #13]
 322:.\main.c      ****     msg[6] = id+'0';
 1075              		.loc 1 322 0
 1076 0018 3035     		adds	r5, r5, #48
 1077 001a 8DF80A50 		strb	r5, [sp, #10]
 323:.\main.c      ****     UART_Blue_PutString(msg);
 1078              		.loc 1 323 0
 1079 001e 01A8     		add	r0, sp, #4
 1080 0020 FFF7FEFF 		bl	UART_Blue_PutString
ARM GAS  C:\Users\lenovo\AppData\Local\Temp\cctHFFKY.s 			page 26


 1081              	.LVL94:
 324:.\main.c      ****     CyDelay(100);
 1082              		.loc 1 324 0
 1083 0024 6420     		movs	r0, #100
 1084 0026 FFF7FEFF 		bl	CyDelay
 1085              	.LVL95:
 325:.\main.c      ****     if(errornum & 1) {
 1086              		.loc 1 325 0
 1087 002a 14F0010F 		tst	r4, #1
 1088 002e 05D0     		beq	.L82
 326:.\main.c      ****         UART_Blue_PutString(" Volt error");
 1089              		.loc 1 326 0
 1090 0030 1B48     		ldr	r0, .L89+4
 1091 0032 FFF7FEFF 		bl	UART_Blue_PutString
 1092              	.LVL96:
 327:.\main.c      ****         CyDelay(100);
 1093              		.loc 1 327 0
 1094 0036 6420     		movs	r0, #100
 1095 0038 FFF7FEFF 		bl	CyDelay
 1096              	.LVL97:
 1097              	.L82:
 328:.\main.c      ****     }    
 329:.\main.c      ****     if(errornum & 2){
 1098              		.loc 1 329 0
 1099 003c 14F0020F 		tst	r4, #2
 1100 0040 05D0     		beq	.L83
 330:.\main.c      ****         UART_Blue_PutString(" angle error");
 1101              		.loc 1 330 0
 1102 0042 1848     		ldr	r0, .L89+8
 1103 0044 FFF7FEFF 		bl	UART_Blue_PutString
 1104              	.LVL98:
 331:.\main.c      ****         CyDelay(100);
 1105              		.loc 1 331 0
 1106 0048 6420     		movs	r0, #100
 1107 004a FFF7FEFF 		bl	CyDelay
 1108              	.LVL99:
 1109              	.L83:
 332:.\main.c      ****     }
 333:.\main.c      ****     if(errornum & 4){
 1110              		.loc 1 333 0
 1111 004e 14F0040F 		tst	r4, #4
 1112 0052 05D0     		beq	.L84
 334:.\main.c      ****         UART_Blue_PutString(" wendu error");
 1113              		.loc 1 334 0
 1114 0054 1448     		ldr	r0, .L89+12
 1115 0056 FFF7FEFF 		bl	UART_Blue_PutString
 1116              	.LVL100:
 335:.\main.c      ****         CyDelay(100);
 1117              		.loc 1 335 0
 1118 005a 6420     		movs	r0, #100
 1119 005c FFF7FEFF 		bl	CyDelay
 1120              	.LVL101:
 1121              	.L84:
 336:.\main.c      ****     }
 337:.\main.c      ****     if(errornum & 8 || errornum & 0x40){
 1122              		.loc 1 337 0
 1123 0060 14F0480F 		tst	r4, #72
ARM GAS  C:\Users\lenovo\AppData\Local\Temp\cctHFFKY.s 			page 27


 1124 0064 05D0     		beq	.L85
 338:.\main.c      ****         UART_Blue_PutString(" instru error");
 1125              		.loc 1 338 0
 1126 0066 1148     		ldr	r0, .L89+16
 1127 0068 FFF7FEFF 		bl	UART_Blue_PutString
 1128              	.LVL102:
 339:.\main.c      ****         CyDelay(100);
 1129              		.loc 1 339 0
 1130 006c 6420     		movs	r0, #100
 1131 006e FFF7FEFF 		bl	CyDelay
 1132              	.LVL103:
 1133              	.L85:
 340:.\main.c      ****     }
 341:.\main.c      ****     if(errornum & 0x10){
 1134              		.loc 1 341 0
 1135 0072 14F0100F 		tst	r4, #16
 1136 0076 05D0     		beq	.L86
 342:.\main.c      ****         UART_Blue_PutString(" checknum error");
 1137              		.loc 1 342 0
 1138 0078 0D48     		ldr	r0, .L89+20
 1139 007a FFF7FEFF 		bl	UART_Blue_PutString
 1140              	.LVL104:
 343:.\main.c      ****         CyDelay(100);
 1141              		.loc 1 343 0
 1142 007e 6420     		movs	r0, #100
 1143 0080 FFF7FEFF 		bl	CyDelay
 1144              	.LVL105:
 1145              	.L86:
 344:.\main.c      ****     }
 345:.\main.c      ****     if(errornum & 0x20){
 1146              		.loc 1 345 0
 1147 0084 14F0200F 		tst	r4, #32
 1148 0088 05D0     		beq	.L81
 346:.\main.c      ****         UART_Blue_PutString(" overload error");
 1149              		.loc 1 346 0
 1150 008a 0A48     		ldr	r0, .L89+24
 1151 008c FFF7FEFF 		bl	UART_Blue_PutString
 1152              	.LVL106:
 347:.\main.c      ****         CyDelay(100);
 1153              		.loc 1 347 0
 1154 0090 6420     		movs	r0, #100
 1155 0092 FFF7FEFF 		bl	CyDelay
 1156              	.LVL107:
 1157              	.L81:
 348:.\main.c      ****     }
 349:.\main.c      **** }
 1158              		.loc 1 349 0
 1159 0096 05B0     		add	sp, sp, #20
 1160              		.cfi_def_cfa_offset 12
 1161              		@ sp needed
 1162 0098 30BD     		pop	{r4, r5, pc}
 1163              	.L90:
 1164 009a 00BF     		.align	2
 1165              	.L89:
 1166 009c 00000000 		.word	.LANCHOR1
 1167 00a0 00000000 		.word	.LC1
 1168 00a4 0C000000 		.word	.LC2
ARM GAS  C:\Users\lenovo\AppData\Local\Temp\cctHFFKY.s 			page 28


 1169 00a8 1C000000 		.word	.LC3
 1170 00ac 2C000000 		.word	.LC4
 1171 00b0 3C000000 		.word	.LC5
 1172 00b4 4C000000 		.word	.LC6
 1173              		.cfi_endproc
 1174              	.LFE76:
 1175              		.size	printError, .-printError
 1176              		.section	.text.initial_Motor_Info,"ax",%progbits
 1177              		.align	2
 1178              		.global	initial_Motor_Info
 1179              		.thumb
 1180              		.thumb_func
 1181              		.type	initial_Motor_Info, %function
 1182              	initial_Motor_Info:
 1183              	.LFB77:
 350:.\main.c      **** 
 351:.\main.c      **** 
 352:.\main.c      **** //初始化motorinfo和实际motor参数
 353:.\main.c      **** //回复延迟时间100us
 354:.\main.c      **** //0-2号舵机0-0x3FF,3号舵机角度430-600
 355:.\main.c      **** //目标速度0x1FF,目标角度0x1FF
 356:.\main.c      **** //加速度减速度都为0
 357:.\main.c      **** //当前速度0，角度512
 358:.\main.c      **** void initial_Motor_Info(){
 1184              		.loc 1 358 0
 1185              		.cfi_startproc
 1186              		@ args = 0, pretend = 0, frame = 0
 1187              		@ frame_needed = 0, uses_anonymous_args = 0
 1188 0000 08B5     		push	{r3, lr}
 1189              		.cfi_def_cfa_offset 8
 1190              		.cfi_offset 3, -8
 1191              		.cfi_offset 14, -4
 1192              	.LVL108:
 359:.\main.c      ****     int id = 0;
 1193              		.loc 1 359 0
 1194 0002 0023     		movs	r3, #0
 360:.\main.c      ****     for(;id<4;id++){
 1195              		.loc 1 360 0
 1196 0004 07E0     		b	.L92
 1197              	.LVL109:
 1198              	.L93:
 361:.\main.c      **** 		motorinfo[id].Id = id;
 1199              		.loc 1 361 0 discriminator 2
 1200 0006 2A48     		ldr	r0, .L95
 1201 0008 1901     		lsls	r1, r3, #4
 1202 000a 4218     		adds	r2, r0, r1
 1203 000c 4354     		strb	r3, [r0, r1]
 362:.\main.c      **** 		//motorinfo[id].delaytime = 100;
 363:.\main.c      **** 		//motorinfo[id].cw = 0;
 364:.\main.c      **** 		//motorinfo[id].ccw = 0x3FF;
 365:.\main.c      **** 		//motorinfo[id].dest_angle = 0x1FF;
 366:.\main.c      **** 		//motorinfo[id].dest_velo = 0x1FF;
 367:.\main.c      **** 		//motorinfo[id].plus_acc = 0;
 368:.\main.c      **** 		//motorinfo[id].minus_acc = 0;
 369:.\main.c      **** 		
 370:.\main.c      **** 		motorinfo[id].current_angle = 0;
 1204              		.loc 1 370 0 discriminator 2
ARM GAS  C:\Users\lenovo\AppData\Local\Temp\cctHFFKY.s 			page 29


 1205 000e 0021     		movs	r1, #0
 1206 0010 9181     		strh	r1, [r2, #12]	@ movhi
 371:.\main.c      **** 		motorinfo[id].current_velo = 0;
 1207              		.loc 1 371 0 discriminator 2
 1208 0012 D181     		strh	r1, [r2, #14]	@ movhi
 360:.\main.c      **** 		motorinfo[id].Id = id;
 1209              		.loc 1 360 0 discriminator 2
 1210 0014 0133     		adds	r3, r3, #1
 1211              	.LVL110:
 1212              	.L92:
 360:.\main.c      **** 		motorinfo[id].Id = id;
 1213              		.loc 1 360 0 is_stmt 0 discriminator 1
 1214 0016 032B     		cmp	r3, #3
 1215 0018 F5DD     		ble	.L93
 372:.\main.c      **** 	}
 373:.\main.c      **** 	
 374:.\main.c      ****  /*   //--------------------------------set_angle_lim-----------------------------
 375:.\main.c      ****     //0号舵机角度motor0:0-300
 376:.\main.c      ****     CyDelay(5);
 377:.\main.c      ****     limit_ccw(0,300);
 378:.\main.c      ****     CyDelay(5);
 379:.\main.c      ****     limit_cw(0,0);
 380:.\main.c      ****     CyDelay(5);
 381:.\main.c      ****     //1号舵机角度motor1:220-802
 382:.\main.c      ****     limit_ccw(1,802);
 383:.\main.c      ****     CyDelay(5);
 384:.\main.c      ****     limit_cw(1,220);
 385:.\main.c      ****     CyDelay(5);
 386:.\main.c      ****     //2号舵机
 387:.\main.c      ****     limit_ccw(2,480);
 388:.\main.c      ****     CyDelay(5);
 389:.\main.c      ****     limit_cw(2,0);
 390:.\main.c      ****     CyDelay(5);
 391:.\main.c      ****     */
 392:.\main.c      ****     //3号舵机角度370-600
 393:.\main.c      **** 	limit_ccw(3, 600);
 1216              		.loc 1 393 0 is_stmt 1
 1217 001a 0320     		movs	r0, #3
 1218 001c 4FF41671 		mov	r1, #600
 1219 0020 FFF7FEFF 		bl	limit_ccw
 1220              	.LVL111:
 394:.\main.c      ****     CyDelay(5);
 1221              		.loc 1 394 0
 1222 0024 0520     		movs	r0, #5
 1223 0026 FFF7FEFF 		bl	CyDelay
 1224              	.LVL112:
 395:.\main.c      **** 	limit_cw(3, 370);
 1225              		.loc 1 395 0
 1226 002a 0320     		movs	r0, #3
 1227 002c 4FF4B971 		mov	r1, #370
 1228 0030 FFF7FEFF 		bl	limit_cw
 1229              	.LVL113:
 396:.\main.c      ****     CyDelay(5); 
 1230              		.loc 1 396 0
 1231 0034 0520     		movs	r0, #5
 1232 0036 FFF7FEFF 		bl	CyDelay
 1233              	.LVL114:
ARM GAS  C:\Users\lenovo\AppData\Local\Temp\cctHFFKY.s 			page 30


 397:.\main.c      ****     
 398:.\main.c      ****     
 399:.\main.c      ****     
 400:.\main.c      ****     //----------------------------broadcast all---------------------------------------
 401:.\main.c      **** 	//broadcast
 402:.\main.c      ****     CyDelay(10);
 1234              		.loc 1 402 0
 1235 003a 0A20     		movs	r0, #10
 1236 003c FFF7FEFF 		bl	CyDelay
 1237              	.LVL115:
 403:.\main.c      **** 	writeDelayTime(broadcastID, 0x32);
 1238              		.loc 1 403 0
 1239 0040 FE20     		movs	r0, #254
 1240 0042 3221     		movs	r1, #50
 1241 0044 FFF7FEFF 		bl	writeDelayTime
 1242              	.LVL116:
 404:.\main.c      ****     
 405:.\main.c      ****     //CyDelay(5);
 406:.\main.c      **** 	//limit_ccw(broadcastID, 0x3FF);
 407:.\main.c      **** 	//CyDelay(5);
 408:.\main.c      ****     //limit_cw(broadcastID, 0);
 409:.\main.c      ****     //CyDelay(5);
 410:.\main.c      ****     
 411:.\main.c      ****     writeVoltRange(broadcastID,60,120);
 1243              		.loc 1 411 0
 1244 0048 FE20     		movs	r0, #254
 1245 004a 3C21     		movs	r1, #60
 1246 004c 7822     		movs	r2, #120
 1247 004e FFF7FEFF 		bl	writeVoltRange
 1248              	.LVL117:
 412:.\main.c      **** 	CyDelay(10);
 1249              		.loc 1 412 0
 1250 0052 0A20     		movs	r0, #10
 1251 0054 FFF7FEFF 		bl	CyDelay
 1252              	.LVL118:
 413:.\main.c      ****     
 414:.\main.c      ****     //motion(broadcastID, 0, 0x1FF);
 415:.\main.c      **** 	//CyDelay(5);
 416:.\main.c      ****     
 417:.\main.c      ****     acc_ctl(broadcastID,0,0);
 1253              		.loc 1 417 0
 1254 0058 FE20     		movs	r0, #254
 1255 005a 0021     		movs	r1, #0
 1256 005c 0A46     		mov	r2, r1
 1257 005e FFF7FEFF 		bl	acc_ctl
 1258              	.LVL119:
 418:.\main.c      **** 	CyDelay(10);
 1259              		.loc 1 418 0
 1260 0062 0A20     		movs	r0, #10
 1261 0064 FFF7FEFF 		bl	CyDelay
 1262              	.LVL120:
 419:.\main.c      ****         
 420:.\main.c      ****     
 421:.\main.c      ****     //------------------------------motion------------------------------------------
 422:.\main.c      ****     
 423:.\main.c      ****      Reg_Write_angle(0,0);
 1263              		.loc 1 423 0
ARM GAS  C:\Users\lenovo\AppData\Local\Temp\cctHFFKY.s 			page 31


 1264 0068 0020     		movs	r0, #0
 1265 006a 0146     		mov	r1, r0
 1266 006c FFF7FEFF 		bl	Reg_Write_angle
 1267              	.LVL121:
 424:.\main.c      ****      CyDelay(10);
 1268              		.loc 1 424 0
 1269 0070 0A20     		movs	r0, #10
 1270 0072 FFF7FEFF 		bl	CyDelay
 1271              	.LVL122:
 425:.\main.c      ****      Reg_Write_angle(1,0x1ff);
 1272              		.loc 1 425 0
 1273 0076 0120     		movs	r0, #1
 1274 0078 40F2FF11 		movw	r1, #511
 1275 007c FFF7FEFF 		bl	Reg_Write_angle
 1276              	.LVL123:
 426:.\main.c      ****      CyDelay(10);
 1277              		.loc 1 426 0
 1278 0080 0A20     		movs	r0, #10
 1279 0082 FFF7FEFF 		bl	CyDelay
 1280              	.LVL124:
 427:.\main.c      ****      Reg_Write_angle(2,0);
 1281              		.loc 1 427 0
 1282 0086 0220     		movs	r0, #2
 1283 0088 0021     		movs	r1, #0
 1284 008a FFF7FEFF 		bl	Reg_Write_angle
 1285              	.LVL125:
 428:.\main.c      ****      CyDelay(10);
 1286              		.loc 1 428 0
 1287 008e 0A20     		movs	r0, #10
 1288 0090 FFF7FEFF 		bl	CyDelay
 1289              	.LVL126:
 429:.\main.c      ****      Reg_Write_angle(3,400);
 1290              		.loc 1 429 0
 1291 0094 0320     		movs	r0, #3
 1292 0096 4FF4C871 		mov	r1, #400
 1293 009a FFF7FEFF 		bl	Reg_Write_angle
 1294              	.LVL127:
 430:.\main.c      ****      CyDelay(10);        
 1295              		.loc 1 430 0
 1296 009e 0A20     		movs	r0, #10
 1297 00a0 FFF7FEFF 		bl	CyDelay
 1298              	.LVL128:
 431:.\main.c      ****      action();
 1299              		.loc 1 431 0
 1300 00a4 FFF7FEFF 		bl	action
 1301              	.LVL129:
 432:.\main.c      ****      CyDelay(10);
 1302              		.loc 1 432 0
 1303 00a8 0A20     		movs	r0, #10
 1304 00aa FFF7FEFF 		bl	CyDelay
 1305              	.LVL130:
 1306 00ae 08BD     		pop	{r3, pc}
 1307              	.L96:
 1308              		.align	2
 1309              	.L95:
 1310 00b0 00000000 		.word	motorinfo
 1311              		.cfi_endproc
ARM GAS  C:\Users\lenovo\AppData\Local\Temp\cctHFFKY.s 			page 32


 1312              	.LFE77:
 1313              		.size	initial_Motor_Info, .-initial_Motor_Info
 1314              		.section	.text.main,"ax",%progbits
 1315              		.align	2
 1316              		.global	main
 1317              		.thumb
 1318              		.thumb_func
 1319              		.type	main, %function
 1320              	main:
 1321              	.LFB78:
 433:.\main.c      **** 
 434:.\main.c      **** }
 435:.\main.c      **** 
 436:.\main.c      **** 
 437:.\main.c      **** //----------------------------主函数--------------------------
 438:.\main.c      **** 
 439:.\main.c      **** int main()
 440:.\main.c      **** {
 1322              		.loc 1 440 0
 1323              		.cfi_startproc
 1324              		@ args = 0, pretend = 0, frame = 0
 1325              		@ frame_needed = 0, uses_anonymous_args = 0
 1326 0000 08B5     		push	{r3, lr}
 1327              		.cfi_def_cfa_offset 8
 1328              		.cfi_offset 3, -8
 1329              		.cfi_offset 14, -4
 441:.\main.c      ****     UART_Blue_Start();
 1330              		.loc 1 441 0
 1331 0002 FFF7FEFF 		bl	UART_Blue_Start
 1332              	.LVL131:
 442:.\main.c      ****     UART_Start();
 1333              		.loc 1 442 0
 1334 0006 FFF7FEFF 		bl	UART_Start
 1335              	.LVL132:
 443:.\main.c      ****     isr_rx_Start();
 1336              		.loc 1 443 0
 1337 000a FFF7FEFF 		bl	isr_rx_Start
 1338              	.LVL133:
 444:.\main.c      ****     //isr_rx_2_Start();
 445:.\main.c      ****     UART_Blue_PutString("UART is OK\r\n"); 
 1339              		.loc 1 445 0
 1340 000e 7548     		ldr	r0, .L102
 1341 0010 FFF7FEFF 		bl	UART_Blue_PutString
 1342              	.LVL134:
 446:.\main.c      ****     CyDelay(10);
 1343              		.loc 1 446 0
 1344 0014 0A20     		movs	r0, #10
 1345 0016 FFF7FEFF 		bl	CyDelay
 1346              	.LVL135:
 447:.\main.c      ****     CYGlobalIntEnable;
 1347              		.loc 1 447 0
 1348              	@ 447 ".\main.c" 1
 1349 001a 62B6     		CPSIE   i
 1350              	@ 0 "" 2
 448:.\main.c      ****     CyDelay(10);
 1351              		.loc 1 448 0
 1352              		.thumb
ARM GAS  C:\Users\lenovo\AppData\Local\Temp\cctHFFKY.s 			page 33


 1353 001c 0A20     		movs	r0, #10
 1354 001e FFF7FEFF 		bl	CyDelay
 1355              	.LVL136:
 449:.\main.c      ****     
 450:.\main.c      ****     initial_Motor_Info();    
 1356              		.loc 1 450 0
 1357 0022 FFF7FEFF 		bl	initial_Motor_Info
 1358              	.LVL137:
 451:.\main.c      ****     UART_Blue_PutString("finishing init\n");
 1359              		.loc 1 451 0
 1360 0026 7048     		ldr	r0, .L102+4
 1361 0028 FFF7FEFF 		bl	UART_Blue_PutString
 1362              	.LVL138:
 452:.\main.c      ****     CyDelay(1000);
 1363              		.loc 1 452 0
 1364 002c 4FF47A70 		mov	r0, #1000
 1365 0030 FFF7FEFF 		bl	CyDelay
 1366              	.LVL139:
 1367              	.L100:
 453:.\main.c      ****     
 454:.\main.c      ****     int flag = 0;
 455:.\main.c      ****     
 456:.\main.c      ****     for(;;)
 457:.\main.c      ****     {
 458:.\main.c      ****         
 459:.\main.c      ****         
 460:.\main.c      ****         if(Mode == 1 && flag == 0) {//掷轮胎模式
 1368              		.loc 1 460 0
 1369 0034 6D4B     		ldr	r3, .L102+8
 1370 0036 5B78     		ldrb	r3, [r3, #1]	@ zero_extendqisi2
 1371 0038 DBB2     		uxtb	r3, r3
 1372 003a 012B     		cmp	r3, #1
 1373 003c 79D1     		bne	.L98
 461:.\main.c      ****             UART_Blue_PutString("Mode1\n");
 1374              		.loc 1 461 0
 1375 003e 6C48     		ldr	r0, .L102+12
 1376 0040 FFF7FEFF 		bl	UART_Blue_PutString
 1377              	.LVL140:
 462:.\main.c      ****             // Prep
 463:.\main.c      ****             CyDelay(1000);
 1378              		.loc 1 463 0
 1379 0044 4FF47A70 		mov	r0, #1000
 1380 0048 FFF7FEFF 		bl	CyDelay
 1381              	.LVL141:
 464:.\main.c      ****             motion(3,400,0x1FF);
 1382              		.loc 1 464 0
 1383 004c 0320     		movs	r0, #3
 1384 004e 4FF4C871 		mov	r1, #400
 1385 0052 40F2FF12 		movw	r2, #511
 1386 0056 FFF7FEFF 		bl	motion
 1387              	.LVL142:
 465:.\main.c      ****             CyDelay(5000);
 1388              		.loc 1 465 0
 1389 005a 41F28830 		movw	r0, #5000
 1390 005e FFF7FEFF 		bl	CyDelay
 1391              	.LVL143:
 466:.\main.c      ****             motion(3,580,0x1FF);
ARM GAS  C:\Users\lenovo\AppData\Local\Temp\cctHFFKY.s 			page 34


 1392              		.loc 1 466 0
 1393 0062 0320     		movs	r0, #3
 1394 0064 4FF41171 		mov	r1, #580
 1395 0068 40F2FF12 		movw	r2, #511
 1396 006c FFF7FEFF 		bl	motion
 1397              	.LVL144:
 467:.\main.c      ****             CyDelay(550);
 1398              		.loc 1 467 0
 1399 0070 40F22620 		movw	r0, #550
 1400 0074 FFF7FEFF 		bl	CyDelay
 1401              	.LVL145:
 468:.\main.c      ****             
 469:.\main.c      ****             // Cast
 470:.\main.c      ****             Reg_Write_angle(0, 200);
 1402              		.loc 1 470 0
 1403 0078 0020     		movs	r0, #0
 1404 007a C821     		movs	r1, #200
 1405 007c FFF7FEFF 		bl	Reg_Write_angle
 1406              	.LVL146:
 471:.\main.c      ****             CyDelay(50);
 1407              		.loc 1 471 0
 1408 0080 3220     		movs	r0, #50
 1409 0082 FFF7FEFF 		bl	CyDelay
 1410              	.LVL147:
 472:.\main.c      ****             Reg_Write_angle(1, 300);
 1411              		.loc 1 472 0
 1412 0086 0120     		movs	r0, #1
 1413 0088 4FF49671 		mov	r1, #300
 1414 008c FFF7FEFF 		bl	Reg_Write_angle
 1415              	.LVL148:
 473:.\main.c      ****             CyDelay(50);
 1416              		.loc 1 473 0
 1417 0090 3220     		movs	r0, #50
 1418 0092 FFF7FEFF 		bl	CyDelay
 1419              	.LVL149:
 474:.\main.c      ****             action();
 1420              		.loc 1 474 0
 1421 0096 FFF7FEFF 		bl	action
 1422              	.LVL150:
 475:.\main.c      ****          
 476:.\main.c      ****             CyDelay(550);
 1423              		.loc 1 476 0
 1424 009a 40F22620 		movw	r0, #550
 1425 009e FFF7FEFF 		bl	CyDelay
 1426              	.LVL151:
 477:.\main.c      ****             
 478:.\main.c      ****             WriteSpeed(2, 0x2FF);
 1427              		.loc 1 478 0
 1428 00a2 0220     		movs	r0, #2
 1429 00a4 40F2FF21 		movw	r1, #767
 1430 00a8 FFF7FEFF 		bl	WriteSpeed
 1431              	.LVL152:
 479:.\main.c      ****             CyDelay(50);
 1432              		.loc 1 479 0
 1433 00ac 3220     		movs	r0, #50
 1434 00ae FFF7FEFF 		bl	CyDelay
 1435              	.LVL153:
ARM GAS  C:\Users\lenovo\AppData\Local\Temp\cctHFFKY.s 			page 35


 480:.\main.c      ****             WriteSpeed(1, 0x3FF);
 1436              		.loc 1 480 0
 1437 00b2 0120     		movs	r0, #1
 1438 00b4 40F2FF31 		movw	r1, #1023
 1439 00b8 FFF7FEFF 		bl	WriteSpeed
 1440              	.LVL154:
 481:.\main.c      ****             CyDelay(50);
 1441              		.loc 1 481 0
 1442 00bc 3220     		movs	r0, #50
 1443 00be FFF7FEFF 		bl	CyDelay
 1444              	.LVL155:
 482:.\main.c      ****             Reg_Write_angle(1, 800);
 1445              		.loc 1 482 0
 1446 00c2 0120     		movs	r0, #1
 1447 00c4 4FF44871 		mov	r1, #800
 1448 00c8 FFF7FEFF 		bl	Reg_Write_angle
 1449              	.LVL156:
 483:.\main.c      ****             CyDelay(50);
 1450              		.loc 1 483 0
 1451 00cc 3220     		movs	r0, #50
 1452 00ce FFF7FEFF 		bl	CyDelay
 1453              	.LVL157:
 484:.\main.c      ****             Reg_Write_angle(2, 300);
 1454              		.loc 1 484 0
 1455 00d2 0220     		movs	r0, #2
 1456 00d4 4FF49671 		mov	r1, #300
 1457 00d8 FFF7FEFF 		bl	Reg_Write_angle
 1458              	.LVL158:
 485:.\main.c      ****             CyDelay(50);
 1459              		.loc 1 485 0
 1460 00dc 3220     		movs	r0, #50
 1461 00de FFF7FEFF 		bl	CyDelay
 1462              	.LVL159:
 486:.\main.c      ****             action();
 1463              		.loc 1 486 0
 1464 00e2 FFF7FEFF 		bl	action
 1465              	.LVL160:
 487:.\main.c      ****             CyDelay(150);
 1466              		.loc 1 487 0
 1467 00e6 9620     		movs	r0, #150
 1468 00e8 FFF7FEFF 		bl	CyDelay
 1469              	.LVL161:
 488:.\main.c      ****             
 489:.\main.c      ****             motion(3, 400, 0x1FF);
 1470              		.loc 1 489 0
 1471 00ec 0320     		movs	r0, #3
 1472 00ee 4FF4C871 		mov	r1, #400
 1473 00f2 40F2FF12 		movw	r2, #511
 1474 00f6 FFF7FEFF 		bl	motion
 1475              	.LVL162:
 490:.\main.c      ****             CyDelay(50);
 1476              		.loc 1 490 0
 1477 00fa 3220     		movs	r0, #50
 1478 00fc FFF7FEFF 		bl	CyDelay
 1479              	.LVL163:
 491:.\main.c      ****             
 492:.\main.c      ****             WriteSpeed(1, 0x1FF);
ARM GAS  C:\Users\lenovo\AppData\Local\Temp\cctHFFKY.s 			page 36


 1480              		.loc 1 492 0
 1481 0100 0120     		movs	r0, #1
 1482 0102 40F2FF11 		movw	r1, #511
 1483 0106 FFF7FEFF 		bl	WriteSpeed
 1484              	.LVL164:
 493:.\main.c      ****             CyDelay(50);
 1485              		.loc 1 493 0
 1486 010a 3220     		movs	r0, #50
 1487 010c FFF7FEFF 		bl	CyDelay
 1488              	.LVL165:
 494:.\main.c      ****             WriteSpeed(2, 0x1FF);
 1489              		.loc 1 494 0
 1490 0110 0220     		movs	r0, #2
 1491 0112 40F2FF11 		movw	r1, #511
 1492 0116 FFF7FEFF 		bl	WriteSpeed
 1493              	.LVL166:
 495:.\main.c      ****             CyDelay(50);
 1494              		.loc 1 495 0
 1495 011a 3220     		movs	r0, #50
 1496 011c FFF7FEFF 		bl	CyDelay
 1497              	.LVL167:
 496:.\main.c      ****             WriteSpeed(0, 0x1FF);
 1498              		.loc 1 496 0
 1499 0120 0020     		movs	r0, #0
 1500 0122 40F2FF11 		movw	r1, #511
 1501 0126 FFF7FEFF 		bl	WriteSpeed
 1502              	.LVL168:
 497:.\main.c      ****             CyDelay(50);
 1503              		.loc 1 497 0
 1504 012a 3220     		movs	r0, #50
 1505 012c FFF7FEFF 		bl	CyDelay
 1506              	.LVL169:
 1507 0130 4AE0     		b	.L99
 1508              	.L98:
 498:.\main.c      ****         }
 499:.\main.c      ****         else if(Mode == 2 && flag == 0){//投篮模式
 1509              		.loc 1 499 0
 1510 0132 2E4B     		ldr	r3, .L102+8
 1511 0134 5B78     		ldrb	r3, [r3, #1]	@ zero_extendqisi2
 1512 0136 DBB2     		uxtb	r3, r3
 1513 0138 022B     		cmp	r3, #2
 1514 013a 45D1     		bne	.L99
 500:.\main.c      ****             UART_Blue_PutString("Mode2\n");
 1515              		.loc 1 500 0
 1516 013c 2D48     		ldr	r0, .L102+16
 1517 013e FFF7FEFF 		bl	UART_Blue_PutString
 1518              	.LVL170:
 501:.\main.c      ****             CyDelay(1000);
 1519              		.loc 1 501 0
 1520 0142 4FF47A70 		mov	r0, #1000
 1521 0146 FFF7FEFF 		bl	CyDelay
 1522              	.LVL171:
 502:.\main.c      ****             motion(3,400,0x1FF);
 1523              		.loc 1 502 0
 1524 014a 0320     		movs	r0, #3
 1525 014c 4FF4C871 		mov	r1, #400
 1526 0150 40F2FF12 		movw	r2, #511
ARM GAS  C:\Users\lenovo\AppData\Local\Temp\cctHFFKY.s 			page 37


 1527 0154 FFF7FEFF 		bl	motion
 1528              	.LVL172:
 503:.\main.c      ****             CyDelay(5000);
 1529              		.loc 1 503 0
 1530 0158 41F28830 		movw	r0, #5000
 1531 015c FFF7FEFF 		bl	CyDelay
 1532              	.LVL173:
 504:.\main.c      ****             motion(3,580,0x1FF);
 1533              		.loc 1 504 0
 1534 0160 0320     		movs	r0, #3
 1535 0162 4FF41171 		mov	r1, #580
 1536 0166 40F2FF12 		movw	r2, #511
 1537 016a FFF7FEFF 		bl	motion
 1538              	.LVL174:
 505:.\main.c      ****             CyDelay(550);
 1539              		.loc 1 505 0
 1540 016e 40F22620 		movw	r0, #550
 1541 0172 FFF7FEFF 		bl	CyDelay
 1542              	.LVL175:
 506:.\main.c      ****             
 507:.\main.c      ****             // Cast
 508:.\main.c      ****             Reg_Write_angle(1, 800);
 1543              		.loc 1 508 0
 1544 0176 0120     		movs	r0, #1
 1545 0178 4FF44871 		mov	r1, #800
 1546 017c FFF7FEFF 		bl	Reg_Write_angle
 1547              	.LVL176:
 509:.\main.c      ****             CyDelay(50);
 1548              		.loc 1 509 0
 1549 0180 3220     		movs	r0, #50
 1550 0182 FFF7FEFF 		bl	CyDelay
 1551              	.LVL177:
 510:.\main.c      ****             Reg_Write_angle(2, 450);
 1552              		.loc 1 510 0
 1553 0186 0220     		movs	r0, #2
 1554 0188 4FF4E171 		mov	r1, #450
 1555 018c FFF7FEFF 		bl	Reg_Write_angle
 1556              	.LVL178:
 511:.\main.c      ****             CyDelay(50);
 1557              		.loc 1 511 0
 1558 0190 3220     		movs	r0, #50
 1559 0192 FFF7FEFF 		bl	CyDelay
 1560              	.LVL179:
 512:.\main.c      ****             action();
 1561              		.loc 1 512 0
 1562 0196 FFF7FEFF 		bl	action
 1563              	.LVL180:
 513:.\main.c      ****             CyDelay(700);
 1564              		.loc 1 513 0
 1565 019a 4FF42F70 		mov	r0, #700
 1566 019e FFF7FEFF 		bl	CyDelay
 1567              	.LVL181:
 514:.\main.c      ****             
 515:.\main.c      ****             
 516:.\main.c      ****             
 517:.\main.c      ****             motion(2, 0, 0x1FF);
 1568              		.loc 1 517 0
ARM GAS  C:\Users\lenovo\AppData\Local\Temp\cctHFFKY.s 			page 38


 1569 01a2 0220     		movs	r0, #2
 1570 01a4 0021     		movs	r1, #0
 1571 01a6 40F2FF12 		movw	r2, #511
 1572 01aa FFF7FEFF 		bl	motion
 1573              	.LVL182:
 518:.\main.c      ****             CyDelay(50);
 1574              		.loc 1 518 0
 1575 01ae 3220     		movs	r0, #50
 1576 01b0 FFF7FEFF 		bl	CyDelay
 1577              	.LVL183:
 519:.\main.c      ****             motion(3, 400, 0x1FF);
 1578              		.loc 1 519 0
 1579 01b4 0320     		movs	r0, #3
 1580 01b6 4FF4C871 		mov	r1, #400
 1581 01ba 40F2FF12 		movw	r2, #511
 1582 01be FFF7FEFF 		bl	motion
 1583              	.LVL184:
 520:.\main.c      ****             CyDelay(50);
 1584              		.loc 1 520 0
 1585 01c2 3220     		movs	r0, #50
 1586 01c4 FFF7FEFF 		bl	CyDelay
 1587              	.LVL185:
 1588              	.L99:
 521:.\main.c      ****             
 522:.\main.c      ****             
 523:.\main.c      ****             
 524:.\main.c      ****         }
 525:.\main.c      ****         CyDelay(1000);
 1589              		.loc 1 525 0
 1590 01c8 4FF47A70 		mov	r0, #1000
 1591 01cc FFF7FEFF 		bl	CyDelay
 1592              	.LVL186:
 526:.\main.c      ****         initial_Motor_Info();    
 1593              		.loc 1 526 0
 1594 01d0 FFF7FEFF 		bl	initial_Motor_Info
 1595              	.LVL187:
 527:.\main.c      ****         UART_Blue_PutString("finishing init\n");
 1596              		.loc 1 527 0
 1597 01d4 0448     		ldr	r0, .L102+4
 1598 01d6 FFF7FEFF 		bl	UART_Blue_PutString
 1599              	.LVL188:
 528:.\main.c      ****         CyDelay(2000);
 1600              		.loc 1 528 0
 1601 01da 4FF4FA60 		mov	r0, #2000
 1602 01de FFF7FEFF 		bl	CyDelay
 1603              	.LVL189:
 529:.\main.c      ****     }
 1604              		.loc 1 529 0
 1605 01e2 27E7     		b	.L100
 1606              	.L103:
 1607              		.align	2
 1608              	.L102:
 1609 01e4 5C000000 		.word	.LC7
 1610 01e8 6C000000 		.word	.LC8
 1611 01ec 00000000 		.word	.LANCHOR0
 1612 01f0 7C000000 		.word	.LC9
 1613 01f4 84000000 		.word	.LC10
ARM GAS  C:\Users\lenovo\AppData\Local\Temp\cctHFFKY.s 			page 39


 1614              		.cfi_endproc
 1615              	.LFE78:
 1616              		.size	main, .-main
 1617              		.global	quesnum
 1618              		.comm	motorinfo,64,4
 1619              		.global	Mode
 1620              		.global	broadcastID
 1621              		.comm	Len_read,2,2
 1622              		.comm	ID_read,2,2
 1623              		.comm	AnsFromRobot,64,4
 1624              		.comm	Cmd2Robot,64,4
 1625              		.section	.rodata
 1626              		.align	2
 1627              		.set	.LANCHOR1,. + 0
 1628              	.LC0:
 1629 0000 20657272 		.ascii	" error :\000"
 1629      6F72203A 
 1629      00
 1630 0009 00       		.space	1
 1631              		.type	broadcastID, %object
 1632              		.size	broadcastID, 1
 1633              	broadcastID:
 1634 000a FE       		.byte	-2
 1635 000b 00       		.section	.rodata.str1.4,"aMS",%progbits,1
 1636              		.align	2
 1637              	.LC1:
 1638 0000 20566F6C 		.ascii	" Volt error\000"
 1638      74206572 
 1638      726F7200 
 1639              	.LC2:
 1640 000c 20616E67 		.ascii	" angle error\000"
 1640      6C652065 
 1640      72726F72 
 1640      00
 1641 0019 000000   		.space	3
 1642              	.LC3:
 1643 001c 2077656E 		.ascii	" wendu error\000"
 1643      64752065 
 1643      72726F72 
 1643      00
 1644 0029 000000   		.space	3
 1645              	.LC4:
 1646 002c 20696E73 		.ascii	" instru error\000"
 1646      74727520 
 1646      6572726F 
 1646      7200
 1647 003a 0000     		.space	2
 1648              	.LC5:
 1649 003c 20636865 		.ascii	" checknum error\000"
 1649      636B6E75 
 1649      6D206572 
 1649      726F7200 
 1650              	.LC6:
 1651 004c 206F7665 		.ascii	" overload error\000"
 1651      726C6F61 
 1651      64206572 
 1651      726F7200 
ARM GAS  C:\Users\lenovo\AppData\Local\Temp\cctHFFKY.s 			page 40


 1652              	.LC7:
 1653 005c 55415254 		.ascii	"UART is OK\015\012\000"
 1653      20697320 
 1653      4F4B0D0A 
 1653      00
 1654 0069 000000   		.space	3
 1655              	.LC8:
 1656 006c 66696E69 		.ascii	"finishing init\012\000"
 1656      7368696E 
 1656      6720696E 
 1656      69740A00 
 1657              	.LC9:
 1658 007c 4D6F6465 		.ascii	"Mode1\012\000"
 1658      310A00
 1659 0083 00       		.space	1
 1660              	.LC10:
 1661 0084 4D6F6465 		.ascii	"Mode2\012\000"
 1661      320A00
 1662 008b 00       		.bss
 1663              		.set	.LANCHOR0,. + 0
 1664              		.type	quesnum, %object
 1665              		.size	quesnum, 1
 1666              	quesnum:
 1667 0000 00       		.space	1
 1668              		.type	Mode, %object
 1669              		.size	Mode, 1
 1670              	Mode:
 1671 0001 00       		.space	1
 1672              		.text
 1673              	.Letext0:
 1674              		.file 2 "c:\\program files (x86)\\cypress\\psoc creator\\3.3\\psoc creator\\import\\gnu\\arm\\4.9.
 1675              		.file 3 "c:\\program files (x86)\\cypress\\psoc creator\\3.3\\psoc creator\\import\\gnu\\arm\\4.9.
 1676              		.file 4 "Generated_Source\\PSoC5/cytypes.h"
 1677              		.file 5 ".\\cyapicallbacks.h"
 1678              		.file 6 "Generated_Source\\PSoC5/core_cm3.h"
 1679              		.file 7 "Generated_Source\\PSoC5/UART.h"
 1680              		.file 8 "Generated_Source\\PSoC5/UART_Blue.h"
 1681              		.file 9 "Generated_Source\\PSoC5/CyLib.h"
 1682              		.file 10 "Generated_Source\\PSoC5/isr_rx.h"