ARM GAS  C:\Users\dell1\AppData\Local\Temp\ccAxqfau.s 			page 1


   1              		.syntax unified
   2              		.cpu cortex-m3
   3              		.fpu softvfp
   4              		.eabi_attribute 20, 1
   5              		.eabi_attribute 21, 1
   6              		.eabi_attribute 23, 3
   7              		.eabi_attribute 24, 1
   8              		.eabi_attribute 25, 1
   9              		.eabi_attribute 26, 1
  10              		.eabi_attribute 30, 1
  11              		.eabi_attribute 34, 1
  12              		.eabi_attribute 18, 4
  13              		.thumb
  14              		.file	"isr_rx_2.c"
  15              		.text
  16              	.Ltext0:
  17              		.cfi_sections	.debug_frame
  18              		.section	.text.isr_rx_2_SetVector,"ax",%progbits
  19              		.align	2
  20              		.global	isr_rx_2_SetVector
  21              		.thumb
  22              		.thumb_func
  23              		.type	isr_rx_2_SetVector, %function
  24              	isr_rx_2_SetVector:
  25              	.LFB66:
  26              		.file 1 ".\\Generated_Source\\PSoC5\\isr_rx_2.c"
   1:.\Generated_Source\PSoC5/isr_rx_2.c **** /*******************************************************************************
   2:.\Generated_Source\PSoC5/isr_rx_2.c **** * File Name: isr_rx_2.c  
   3:.\Generated_Source\PSoC5/isr_rx_2.c **** * Version 1.70
   4:.\Generated_Source\PSoC5/isr_rx_2.c **** *
   5:.\Generated_Source\PSoC5/isr_rx_2.c **** *  Description:
   6:.\Generated_Source\PSoC5/isr_rx_2.c **** *   API for controlling the state of an interrupt.
   7:.\Generated_Source\PSoC5/isr_rx_2.c **** *
   8:.\Generated_Source\PSoC5/isr_rx_2.c **** *
   9:.\Generated_Source\PSoC5/isr_rx_2.c **** *  Note:
  10:.\Generated_Source\PSoC5/isr_rx_2.c **** *
  11:.\Generated_Source\PSoC5/isr_rx_2.c **** ********************************************************************************
  12:.\Generated_Source\PSoC5/isr_rx_2.c **** * Copyright 2008-2015, Cypress Semiconductor Corporation.  All rights reserved.
  13:.\Generated_Source\PSoC5/isr_rx_2.c **** * You may use this file only in accordance with the license, terms, conditions, 
  14:.\Generated_Source\PSoC5/isr_rx_2.c **** * disclaimers, and limitations in the end user license agreement accompanying 
  15:.\Generated_Source\PSoC5/isr_rx_2.c **** * the software package with which this file was provided.
  16:.\Generated_Source\PSoC5/isr_rx_2.c **** *******************************************************************************/
  17:.\Generated_Source\PSoC5/isr_rx_2.c **** 
  18:.\Generated_Source\PSoC5/isr_rx_2.c **** 
  19:.\Generated_Source\PSoC5/isr_rx_2.c **** #include <cydevice_trm.h>
  20:.\Generated_Source\PSoC5/isr_rx_2.c **** #include <CyLib.h>
  21:.\Generated_Source\PSoC5/isr_rx_2.c **** #include <isr_rx_2.h>
  22:.\Generated_Source\PSoC5/isr_rx_2.c **** #include "cyapicallbacks.h"
  23:.\Generated_Source\PSoC5/isr_rx_2.c **** 
  24:.\Generated_Source\PSoC5/isr_rx_2.c **** #if !defined(isr_rx_2__REMOVED) /* Check for removal by optimization */
  25:.\Generated_Source\PSoC5/isr_rx_2.c **** 
  26:.\Generated_Source\PSoC5/isr_rx_2.c **** /*******************************************************************************
  27:.\Generated_Source\PSoC5/isr_rx_2.c **** *  Place your includes, defines and code here 
  28:.\Generated_Source\PSoC5/isr_rx_2.c **** ********************************************************************************/
  29:.\Generated_Source\PSoC5/isr_rx_2.c **** /* `#START isr_rx_2_intc` */
  30:.\Generated_Source\PSoC5/isr_rx_2.c **** 
  31:.\Generated_Source\PSoC5/isr_rx_2.c **** /* `#END` */
ARM GAS  C:\Users\dell1\AppData\Local\Temp\ccAxqfau.s 			page 2


  32:.\Generated_Source\PSoC5/isr_rx_2.c **** 
  33:.\Generated_Source\PSoC5/isr_rx_2.c **** #ifndef CYINT_IRQ_BASE
  34:.\Generated_Source\PSoC5/isr_rx_2.c **** #define CYINT_IRQ_BASE      16
  35:.\Generated_Source\PSoC5/isr_rx_2.c **** #endif /* CYINT_IRQ_BASE */
  36:.\Generated_Source\PSoC5/isr_rx_2.c **** #ifndef CYINT_VECT_TABLE
  37:.\Generated_Source\PSoC5/isr_rx_2.c **** #define CYINT_VECT_TABLE    ((cyisraddress **) CYREG_NVIC_VECT_OFFSET)
  38:.\Generated_Source\PSoC5/isr_rx_2.c **** #endif /* CYINT_VECT_TABLE */
  39:.\Generated_Source\PSoC5/isr_rx_2.c **** 
  40:.\Generated_Source\PSoC5/isr_rx_2.c **** /* Declared in startup, used to set unused interrupts to. */
  41:.\Generated_Source\PSoC5/isr_rx_2.c **** CY_ISR_PROTO(IntDefaultHandler);
  42:.\Generated_Source\PSoC5/isr_rx_2.c **** 
  43:.\Generated_Source\PSoC5/isr_rx_2.c **** 
  44:.\Generated_Source\PSoC5/isr_rx_2.c **** /*******************************************************************************
  45:.\Generated_Source\PSoC5/isr_rx_2.c **** * Function Name: isr_rx_2_Start
  46:.\Generated_Source\PSoC5/isr_rx_2.c **** ********************************************************************************
  47:.\Generated_Source\PSoC5/isr_rx_2.c **** *
  48:.\Generated_Source\PSoC5/isr_rx_2.c **** * Summary:
  49:.\Generated_Source\PSoC5/isr_rx_2.c **** *  Set up the interrupt and enable it. This function disables the interrupt, 
  50:.\Generated_Source\PSoC5/isr_rx_2.c **** *  sets the default interrupt vector, sets the priority from the value in the
  51:.\Generated_Source\PSoC5/isr_rx_2.c **** *  Design Wide Resources Interrupt Editor, then enables the interrupt to the 
  52:.\Generated_Source\PSoC5/isr_rx_2.c **** *  interrupt controller.
  53:.\Generated_Source\PSoC5/isr_rx_2.c **** *
  54:.\Generated_Source\PSoC5/isr_rx_2.c **** * Parameters:  
  55:.\Generated_Source\PSoC5/isr_rx_2.c **** *   None
  56:.\Generated_Source\PSoC5/isr_rx_2.c **** *
  57:.\Generated_Source\PSoC5/isr_rx_2.c **** * Return:
  58:.\Generated_Source\PSoC5/isr_rx_2.c **** *   None
  59:.\Generated_Source\PSoC5/isr_rx_2.c **** *
  60:.\Generated_Source\PSoC5/isr_rx_2.c **** *******************************************************************************/
  61:.\Generated_Source\PSoC5/isr_rx_2.c **** void isr_rx_2_Start(void)
  62:.\Generated_Source\PSoC5/isr_rx_2.c **** {
  63:.\Generated_Source\PSoC5/isr_rx_2.c ****     /* For all we know the interrupt is active. */
  64:.\Generated_Source\PSoC5/isr_rx_2.c ****     isr_rx_2_Disable();
  65:.\Generated_Source\PSoC5/isr_rx_2.c **** 
  66:.\Generated_Source\PSoC5/isr_rx_2.c ****     /* Set the ISR to point to the isr_rx_2 Interrupt. */
  67:.\Generated_Source\PSoC5/isr_rx_2.c ****     isr_rx_2_SetVector(&isr_rx_2_Interrupt);
  68:.\Generated_Source\PSoC5/isr_rx_2.c **** 
  69:.\Generated_Source\PSoC5/isr_rx_2.c ****     /* Set the priority. */
  70:.\Generated_Source\PSoC5/isr_rx_2.c ****     isr_rx_2_SetPriority((uint8)isr_rx_2_INTC_PRIOR_NUMBER);
  71:.\Generated_Source\PSoC5/isr_rx_2.c **** 
  72:.\Generated_Source\PSoC5/isr_rx_2.c ****     /* Enable it. */
  73:.\Generated_Source\PSoC5/isr_rx_2.c ****     isr_rx_2_Enable();
  74:.\Generated_Source\PSoC5/isr_rx_2.c **** }
  75:.\Generated_Source\PSoC5/isr_rx_2.c **** 
  76:.\Generated_Source\PSoC5/isr_rx_2.c **** 
  77:.\Generated_Source\PSoC5/isr_rx_2.c **** /*******************************************************************************
  78:.\Generated_Source\PSoC5/isr_rx_2.c **** * Function Name: isr_rx_2_StartEx
  79:.\Generated_Source\PSoC5/isr_rx_2.c **** ********************************************************************************
  80:.\Generated_Source\PSoC5/isr_rx_2.c **** *
  81:.\Generated_Source\PSoC5/isr_rx_2.c **** * Summary:
  82:.\Generated_Source\PSoC5/isr_rx_2.c **** *  Sets up the interrupt and enables it. This function disables the interrupt,
  83:.\Generated_Source\PSoC5/isr_rx_2.c **** *  sets the interrupt vector based on the address passed in, sets the priority 
  84:.\Generated_Source\PSoC5/isr_rx_2.c **** *  from the value in the Design Wide Resources Interrupt Editor, then enables 
  85:.\Generated_Source\PSoC5/isr_rx_2.c **** *  the interrupt to the interrupt controller.
  86:.\Generated_Source\PSoC5/isr_rx_2.c **** *  
  87:.\Generated_Source\PSoC5/isr_rx_2.c **** *  When defining ISR functions, the CY_ISR and CY_ISR_PROTO macros should be 
  88:.\Generated_Source\PSoC5/isr_rx_2.c **** *  used to provide consistent definition across compilers:
ARM GAS  C:\Users\dell1\AppData\Local\Temp\ccAxqfau.s 			page 3


  89:.\Generated_Source\PSoC5/isr_rx_2.c **** *  
  90:.\Generated_Source\PSoC5/isr_rx_2.c **** *  Function definition example:
  91:.\Generated_Source\PSoC5/isr_rx_2.c **** *   CY_ISR(MyISR)
  92:.\Generated_Source\PSoC5/isr_rx_2.c **** *   {
  93:.\Generated_Source\PSoC5/isr_rx_2.c **** *   }
  94:.\Generated_Source\PSoC5/isr_rx_2.c **** *   Function prototype example:
  95:.\Generated_Source\PSoC5/isr_rx_2.c **** *   CY_ISR_PROTO(MyISR);
  96:.\Generated_Source\PSoC5/isr_rx_2.c **** *
  97:.\Generated_Source\PSoC5/isr_rx_2.c **** * Parameters:  
  98:.\Generated_Source\PSoC5/isr_rx_2.c **** *   address: Address of the ISR to set in the interrupt vector table.
  99:.\Generated_Source\PSoC5/isr_rx_2.c **** *
 100:.\Generated_Source\PSoC5/isr_rx_2.c **** * Return:
 101:.\Generated_Source\PSoC5/isr_rx_2.c **** *   None
 102:.\Generated_Source\PSoC5/isr_rx_2.c **** *
 103:.\Generated_Source\PSoC5/isr_rx_2.c **** *******************************************************************************/
 104:.\Generated_Source\PSoC5/isr_rx_2.c **** void isr_rx_2_StartEx(cyisraddress address)
 105:.\Generated_Source\PSoC5/isr_rx_2.c **** {
 106:.\Generated_Source\PSoC5/isr_rx_2.c ****     /* For all we know the interrupt is active. */
 107:.\Generated_Source\PSoC5/isr_rx_2.c ****     isr_rx_2_Disable();
 108:.\Generated_Source\PSoC5/isr_rx_2.c **** 
 109:.\Generated_Source\PSoC5/isr_rx_2.c ****     /* Set the ISR to point to the isr_rx_2 Interrupt. */
 110:.\Generated_Source\PSoC5/isr_rx_2.c ****     isr_rx_2_SetVector(address);
 111:.\Generated_Source\PSoC5/isr_rx_2.c **** 
 112:.\Generated_Source\PSoC5/isr_rx_2.c ****     /* Set the priority. */
 113:.\Generated_Source\PSoC5/isr_rx_2.c ****     isr_rx_2_SetPriority((uint8)isr_rx_2_INTC_PRIOR_NUMBER);
 114:.\Generated_Source\PSoC5/isr_rx_2.c **** 
 115:.\Generated_Source\PSoC5/isr_rx_2.c ****     /* Enable it. */
 116:.\Generated_Source\PSoC5/isr_rx_2.c ****     isr_rx_2_Enable();
 117:.\Generated_Source\PSoC5/isr_rx_2.c **** }
 118:.\Generated_Source\PSoC5/isr_rx_2.c **** 
 119:.\Generated_Source\PSoC5/isr_rx_2.c **** 
 120:.\Generated_Source\PSoC5/isr_rx_2.c **** /*******************************************************************************
 121:.\Generated_Source\PSoC5/isr_rx_2.c **** * Function Name: isr_rx_2_Stop
 122:.\Generated_Source\PSoC5/isr_rx_2.c **** ********************************************************************************
 123:.\Generated_Source\PSoC5/isr_rx_2.c **** *
 124:.\Generated_Source\PSoC5/isr_rx_2.c **** * Summary:
 125:.\Generated_Source\PSoC5/isr_rx_2.c **** *   Disables and removes the interrupt.
 126:.\Generated_Source\PSoC5/isr_rx_2.c **** *
 127:.\Generated_Source\PSoC5/isr_rx_2.c **** * Parameters:  
 128:.\Generated_Source\PSoC5/isr_rx_2.c **** *   None
 129:.\Generated_Source\PSoC5/isr_rx_2.c **** *
 130:.\Generated_Source\PSoC5/isr_rx_2.c **** * Return:
 131:.\Generated_Source\PSoC5/isr_rx_2.c **** *   None
 132:.\Generated_Source\PSoC5/isr_rx_2.c **** *
 133:.\Generated_Source\PSoC5/isr_rx_2.c **** *******************************************************************************/
 134:.\Generated_Source\PSoC5/isr_rx_2.c **** void isr_rx_2_Stop(void)
 135:.\Generated_Source\PSoC5/isr_rx_2.c **** {
 136:.\Generated_Source\PSoC5/isr_rx_2.c ****     /* Disable this interrupt. */
 137:.\Generated_Source\PSoC5/isr_rx_2.c ****     isr_rx_2_Disable();
 138:.\Generated_Source\PSoC5/isr_rx_2.c **** 
 139:.\Generated_Source\PSoC5/isr_rx_2.c ****     /* Set the ISR to point to the passive one. */
 140:.\Generated_Source\PSoC5/isr_rx_2.c ****     isr_rx_2_SetVector(&IntDefaultHandler);
 141:.\Generated_Source\PSoC5/isr_rx_2.c **** }
 142:.\Generated_Source\PSoC5/isr_rx_2.c **** 
 143:.\Generated_Source\PSoC5/isr_rx_2.c **** 
 144:.\Generated_Source\PSoC5/isr_rx_2.c **** /*******************************************************************************
 145:.\Generated_Source\PSoC5/isr_rx_2.c **** * Function Name: isr_rx_2_Interrupt
ARM GAS  C:\Users\dell1\AppData\Local\Temp\ccAxqfau.s 			page 4


 146:.\Generated_Source\PSoC5/isr_rx_2.c **** ********************************************************************************
 147:.\Generated_Source\PSoC5/isr_rx_2.c **** *
 148:.\Generated_Source\PSoC5/isr_rx_2.c **** * Summary:
 149:.\Generated_Source\PSoC5/isr_rx_2.c **** *   The default Interrupt Service Routine for isr_rx_2.
 150:.\Generated_Source\PSoC5/isr_rx_2.c **** *
 151:.\Generated_Source\PSoC5/isr_rx_2.c **** *   Add custom code between the coments to keep the next version of this file
 152:.\Generated_Source\PSoC5/isr_rx_2.c **** *   from over writting your code.
 153:.\Generated_Source\PSoC5/isr_rx_2.c **** *
 154:.\Generated_Source\PSoC5/isr_rx_2.c **** * Parameters:  
 155:.\Generated_Source\PSoC5/isr_rx_2.c **** *
 156:.\Generated_Source\PSoC5/isr_rx_2.c **** * Return:
 157:.\Generated_Source\PSoC5/isr_rx_2.c **** *   None
 158:.\Generated_Source\PSoC5/isr_rx_2.c **** *
 159:.\Generated_Source\PSoC5/isr_rx_2.c **** *******************************************************************************/
 160:.\Generated_Source\PSoC5/isr_rx_2.c **** 
 161:.\Generated_Source\PSoC5/isr_rx_2.c **** 
 162:.\Generated_Source\PSoC5/isr_rx_2.c **** /*******************************************************************************
 163:.\Generated_Source\PSoC5/isr_rx_2.c **** * Function Name: isr_rx_2_SetVector
 164:.\Generated_Source\PSoC5/isr_rx_2.c **** ********************************************************************************
 165:.\Generated_Source\PSoC5/isr_rx_2.c **** *
 166:.\Generated_Source\PSoC5/isr_rx_2.c **** * Summary:
 167:.\Generated_Source\PSoC5/isr_rx_2.c **** *   Change the ISR vector for the Interrupt. Note calling isr_rx_2_Start
 168:.\Generated_Source\PSoC5/isr_rx_2.c **** *   will override any effect this method would have had. To set the vector 
 169:.\Generated_Source\PSoC5/isr_rx_2.c **** *   before the component has been started use isr_rx_2_StartEx instead.
 170:.\Generated_Source\PSoC5/isr_rx_2.c **** * 
 171:.\Generated_Source\PSoC5/isr_rx_2.c **** *   When defining ISR functions, the CY_ISR and CY_ISR_PROTO macros should be 
 172:.\Generated_Source\PSoC5/isr_rx_2.c **** *   used to provide consistent definition across compilers:
 173:.\Generated_Source\PSoC5/isr_rx_2.c **** *
 174:.\Generated_Source\PSoC5/isr_rx_2.c **** *   Function definition example:
 175:.\Generated_Source\PSoC5/isr_rx_2.c **** *   CY_ISR(MyISR)
 176:.\Generated_Source\PSoC5/isr_rx_2.c **** *   {
 177:.\Generated_Source\PSoC5/isr_rx_2.c **** *   }
 178:.\Generated_Source\PSoC5/isr_rx_2.c **** *
 179:.\Generated_Source\PSoC5/isr_rx_2.c **** *   Function prototype example:
 180:.\Generated_Source\PSoC5/isr_rx_2.c **** *     CY_ISR_PROTO(MyISR);
 181:.\Generated_Source\PSoC5/isr_rx_2.c **** *
 182:.\Generated_Source\PSoC5/isr_rx_2.c **** * Parameters:
 183:.\Generated_Source\PSoC5/isr_rx_2.c **** *   address: Address of the ISR to set in the interrupt vector table.
 184:.\Generated_Source\PSoC5/isr_rx_2.c **** *
 185:.\Generated_Source\PSoC5/isr_rx_2.c **** * Return:
 186:.\Generated_Source\PSoC5/isr_rx_2.c **** *   None
 187:.\Generated_Source\PSoC5/isr_rx_2.c **** *
 188:.\Generated_Source\PSoC5/isr_rx_2.c **** *******************************************************************************/
 189:.\Generated_Source\PSoC5/isr_rx_2.c **** void isr_rx_2_SetVector(cyisraddress address)
 190:.\Generated_Source\PSoC5/isr_rx_2.c **** {
  27              		.loc 1 190 0
  28              		.cfi_startproc
  29              		@ args = 0, pretend = 0, frame = 0
  30              		@ frame_needed = 0, uses_anonymous_args = 0
  31              		@ link register save eliminated.
  32              	.LVL0:
 191:.\Generated_Source\PSoC5/isr_rx_2.c ****     cyisraddress * ramVectorTable;
 192:.\Generated_Source\PSoC5/isr_rx_2.c **** 
 193:.\Generated_Source\PSoC5/isr_rx_2.c ****     ramVectorTable = (cyisraddress *) *CYINT_VECT_TABLE;
  33              		.loc 1 193 0
  34 0000 014B     		ldr	r3, .L2
  35 0002 1B68     		ldr	r3, [r3]
ARM GAS  C:\Users\dell1\AppData\Local\Temp\ccAxqfau.s 			page 5


  36              	.LVL1:
 194:.\Generated_Source\PSoC5/isr_rx_2.c **** 
 195:.\Generated_Source\PSoC5/isr_rx_2.c ****     ramVectorTable[CYINT_IRQ_BASE + (uint32)isr_rx_2__INTC_NUMBER] = address;
  37              		.loc 1 195 0
  38 0004 5864     		str	r0, [r3, #68]
  39 0006 7047     		bx	lr
  40              	.L3:
  41              		.align	2
  42              	.L2:
  43 0008 08ED00E0 		.word	-536810232
  44              		.cfi_endproc
  45              	.LFE66:
  46              		.size	isr_rx_2_SetVector, .-isr_rx_2_SetVector
  47              		.section	.text.isr_rx_2_GetVector,"ax",%progbits
  48              		.align	2
  49              		.global	isr_rx_2_GetVector
  50              		.thumb
  51              		.thumb_func
  52              		.type	isr_rx_2_GetVector, %function
  53              	isr_rx_2_GetVector:
  54              	.LFB67:
 196:.\Generated_Source\PSoC5/isr_rx_2.c **** }
 197:.\Generated_Source\PSoC5/isr_rx_2.c **** 
 198:.\Generated_Source\PSoC5/isr_rx_2.c **** 
 199:.\Generated_Source\PSoC5/isr_rx_2.c **** /*******************************************************************************
 200:.\Generated_Source\PSoC5/isr_rx_2.c **** * Function Name: isr_rx_2_GetVector
 201:.\Generated_Source\PSoC5/isr_rx_2.c **** ********************************************************************************
 202:.\Generated_Source\PSoC5/isr_rx_2.c **** *
 203:.\Generated_Source\PSoC5/isr_rx_2.c **** * Summary:
 204:.\Generated_Source\PSoC5/isr_rx_2.c **** *   Gets the "address" of the current ISR vector for the Interrupt.
 205:.\Generated_Source\PSoC5/isr_rx_2.c **** *
 206:.\Generated_Source\PSoC5/isr_rx_2.c **** * Parameters:
 207:.\Generated_Source\PSoC5/isr_rx_2.c **** *   None
 208:.\Generated_Source\PSoC5/isr_rx_2.c **** *
 209:.\Generated_Source\PSoC5/isr_rx_2.c **** * Return:
 210:.\Generated_Source\PSoC5/isr_rx_2.c **** *   Address of the ISR in the interrupt vector table.
 211:.\Generated_Source\PSoC5/isr_rx_2.c **** *
 212:.\Generated_Source\PSoC5/isr_rx_2.c **** *******************************************************************************/
 213:.\Generated_Source\PSoC5/isr_rx_2.c **** cyisraddress isr_rx_2_GetVector(void)
 214:.\Generated_Source\PSoC5/isr_rx_2.c **** {
  55              		.loc 1 214 0
  56              		.cfi_startproc
  57              		@ args = 0, pretend = 0, frame = 0
  58              		@ frame_needed = 0, uses_anonymous_args = 0
  59              		@ link register save eliminated.
 215:.\Generated_Source\PSoC5/isr_rx_2.c ****     cyisraddress * ramVectorTable;
 216:.\Generated_Source\PSoC5/isr_rx_2.c **** 
 217:.\Generated_Source\PSoC5/isr_rx_2.c ****     ramVectorTable = (cyisraddress *) *CYINT_VECT_TABLE;
  60              		.loc 1 217 0
  61 0000 014B     		ldr	r3, .L5
  62 0002 1B68     		ldr	r3, [r3]
  63              	.LVL2:
 218:.\Generated_Source\PSoC5/isr_rx_2.c **** 
 219:.\Generated_Source\PSoC5/isr_rx_2.c ****     return ramVectorTable[CYINT_IRQ_BASE + (uint32)isr_rx_2__INTC_NUMBER];
 220:.\Generated_Source\PSoC5/isr_rx_2.c **** }
  64              		.loc 1 220 0
  65 0004 586C     		ldr	r0, [r3, #68]
ARM GAS  C:\Users\dell1\AppData\Local\Temp\ccAxqfau.s 			page 6


  66 0006 7047     		bx	lr
  67              	.L6:
  68              		.align	2
  69              	.L5:
  70 0008 08ED00E0 		.word	-536810232
  71              		.cfi_endproc
  72              	.LFE67:
  73              		.size	isr_rx_2_GetVector, .-isr_rx_2_GetVector
  74              		.section	.text.isr_rx_2_SetPriority,"ax",%progbits
  75              		.align	2
  76              		.global	isr_rx_2_SetPriority
  77              		.thumb
  78              		.thumb_func
  79              		.type	isr_rx_2_SetPriority, %function
  80              	isr_rx_2_SetPriority:
  81              	.LFB68:
 221:.\Generated_Source\PSoC5/isr_rx_2.c **** 
 222:.\Generated_Source\PSoC5/isr_rx_2.c **** 
 223:.\Generated_Source\PSoC5/isr_rx_2.c **** /*******************************************************************************
 224:.\Generated_Source\PSoC5/isr_rx_2.c **** * Function Name: isr_rx_2_SetPriority
 225:.\Generated_Source\PSoC5/isr_rx_2.c **** ********************************************************************************
 226:.\Generated_Source\PSoC5/isr_rx_2.c **** *
 227:.\Generated_Source\PSoC5/isr_rx_2.c **** * Summary:
 228:.\Generated_Source\PSoC5/isr_rx_2.c **** *   Sets the Priority of the Interrupt. 
 229:.\Generated_Source\PSoC5/isr_rx_2.c **** *
 230:.\Generated_Source\PSoC5/isr_rx_2.c **** *   Note calling isr_rx_2_Start or isr_rx_2_StartEx will 
 231:.\Generated_Source\PSoC5/isr_rx_2.c **** *   override any effect this API would have had. This API should only be called
 232:.\Generated_Source\PSoC5/isr_rx_2.c **** *   after isr_rx_2_Start or isr_rx_2_StartEx has been called. 
 233:.\Generated_Source\PSoC5/isr_rx_2.c **** *   To set the initial priority for the component, use the Design-Wide Resources
 234:.\Generated_Source\PSoC5/isr_rx_2.c **** *   Interrupt Editor.
 235:.\Generated_Source\PSoC5/isr_rx_2.c **** *
 236:.\Generated_Source\PSoC5/isr_rx_2.c **** *   Note This API has no effect on Non-maskable interrupt NMI).
 237:.\Generated_Source\PSoC5/isr_rx_2.c **** *
 238:.\Generated_Source\PSoC5/isr_rx_2.c **** * Parameters:
 239:.\Generated_Source\PSoC5/isr_rx_2.c **** *   priority: Priority of the interrupt, 0 being the highest priority
 240:.\Generated_Source\PSoC5/isr_rx_2.c **** *             PSoC 3 and PSoC 5LP: Priority is from 0 to 7.
 241:.\Generated_Source\PSoC5/isr_rx_2.c **** *             PSoC 4: Priority is from 0 to 3.
 242:.\Generated_Source\PSoC5/isr_rx_2.c **** *
 243:.\Generated_Source\PSoC5/isr_rx_2.c **** * Return:
 244:.\Generated_Source\PSoC5/isr_rx_2.c **** *   None
 245:.\Generated_Source\PSoC5/isr_rx_2.c **** *
 246:.\Generated_Source\PSoC5/isr_rx_2.c **** *******************************************************************************/
 247:.\Generated_Source\PSoC5/isr_rx_2.c **** void isr_rx_2_SetPriority(uint8 priority)
 248:.\Generated_Source\PSoC5/isr_rx_2.c **** {
  82              		.loc 1 248 0
  83              		.cfi_startproc
  84              		@ args = 0, pretend = 0, frame = 0
  85              		@ frame_needed = 0, uses_anonymous_args = 0
  86              		@ link register save eliminated.
  87              	.LVL3:
 249:.\Generated_Source\PSoC5/isr_rx_2.c ****     *isr_rx_2_INTC_PRIOR = priority << 5;
  88              		.loc 1 249 0
  89 0000 4001     		lsls	r0, r0, #5
  90              	.LVL4:
  91 0002 C0B2     		uxtb	r0, r0
  92 0004 014B     		ldr	r3, .L8
  93 0006 1870     		strb	r0, [r3]
ARM GAS  C:\Users\dell1\AppData\Local\Temp\ccAxqfau.s 			page 7


  94 0008 7047     		bx	lr
  95              	.L9:
  96 000a 00BF     		.align	2
  97              	.L8:
  98 000c 01E400E0 		.word	-536812543
  99              		.cfi_endproc
 100              	.LFE68:
 101              		.size	isr_rx_2_SetPriority, .-isr_rx_2_SetPriority
 102              		.section	.text.isr_rx_2_GetPriority,"ax",%progbits
 103              		.align	2
 104              		.global	isr_rx_2_GetPriority
 105              		.thumb
 106              		.thumb_func
 107              		.type	isr_rx_2_GetPriority, %function
 108              	isr_rx_2_GetPriority:
 109              	.LFB69:
 250:.\Generated_Source\PSoC5/isr_rx_2.c **** }
 251:.\Generated_Source\PSoC5/isr_rx_2.c **** 
 252:.\Generated_Source\PSoC5/isr_rx_2.c **** 
 253:.\Generated_Source\PSoC5/isr_rx_2.c **** /*******************************************************************************
 254:.\Generated_Source\PSoC5/isr_rx_2.c **** * Function Name: isr_rx_2_GetPriority
 255:.\Generated_Source\PSoC5/isr_rx_2.c **** ********************************************************************************
 256:.\Generated_Source\PSoC5/isr_rx_2.c **** *
 257:.\Generated_Source\PSoC5/isr_rx_2.c **** * Summary:
 258:.\Generated_Source\PSoC5/isr_rx_2.c **** *   Gets the Priority of the Interrupt.
 259:.\Generated_Source\PSoC5/isr_rx_2.c **** *
 260:.\Generated_Source\PSoC5/isr_rx_2.c **** * Parameters:
 261:.\Generated_Source\PSoC5/isr_rx_2.c **** *   None
 262:.\Generated_Source\PSoC5/isr_rx_2.c **** *
 263:.\Generated_Source\PSoC5/isr_rx_2.c **** * Return:
 264:.\Generated_Source\PSoC5/isr_rx_2.c **** *   Priority of the interrupt, 0 being the highest priority
 265:.\Generated_Source\PSoC5/isr_rx_2.c **** *    PSoC 3 and PSoC 5LP: Priority is from 0 to 7.
 266:.\Generated_Source\PSoC5/isr_rx_2.c **** *    PSoC 4: Priority is from 0 to 3.
 267:.\Generated_Source\PSoC5/isr_rx_2.c **** *
 268:.\Generated_Source\PSoC5/isr_rx_2.c **** *******************************************************************************/
 269:.\Generated_Source\PSoC5/isr_rx_2.c **** uint8 isr_rx_2_GetPriority(void)
 270:.\Generated_Source\PSoC5/isr_rx_2.c **** {
 110              		.loc 1 270 0
 111              		.cfi_startproc
 112              		@ args = 0, pretend = 0, frame = 0
 113              		@ frame_needed = 0, uses_anonymous_args = 0
 114              		@ link register save eliminated.
 271:.\Generated_Source\PSoC5/isr_rx_2.c ****     uint8 priority;
 272:.\Generated_Source\PSoC5/isr_rx_2.c **** 
 273:.\Generated_Source\PSoC5/isr_rx_2.c **** 
 274:.\Generated_Source\PSoC5/isr_rx_2.c ****     priority = *isr_rx_2_INTC_PRIOR >> 5;
 115              		.loc 1 274 0
 116 0000 014B     		ldr	r3, .L11
 117 0002 1878     		ldrb	r0, [r3]	@ zero_extendqisi2
 118              	.LVL5:
 275:.\Generated_Source\PSoC5/isr_rx_2.c **** 
 276:.\Generated_Source\PSoC5/isr_rx_2.c ****     return priority;
 277:.\Generated_Source\PSoC5/isr_rx_2.c **** }
 119              		.loc 1 277 0
 120 0004 4009     		lsrs	r0, r0, #5
 121              	.LVL6:
 122 0006 7047     		bx	lr
ARM GAS  C:\Users\dell1\AppData\Local\Temp\ccAxqfau.s 			page 8


 123              	.L12:
 124              		.align	2
 125              	.L11:
 126 0008 01E400E0 		.word	-536812543
 127              		.cfi_endproc
 128              	.LFE69:
 129              		.size	isr_rx_2_GetPriority, .-isr_rx_2_GetPriority
 130              		.section	.text.isr_rx_2_Enable,"ax",%progbits
 131              		.align	2
 132              		.global	isr_rx_2_Enable
 133              		.thumb
 134              		.thumb_func
 135              		.type	isr_rx_2_Enable, %function
 136              	isr_rx_2_Enable:
 137              	.LFB70:
 278:.\Generated_Source\PSoC5/isr_rx_2.c **** 
 279:.\Generated_Source\PSoC5/isr_rx_2.c **** 
 280:.\Generated_Source\PSoC5/isr_rx_2.c **** /*******************************************************************************
 281:.\Generated_Source\PSoC5/isr_rx_2.c **** * Function Name: isr_rx_2_Enable
 282:.\Generated_Source\PSoC5/isr_rx_2.c **** ********************************************************************************
 283:.\Generated_Source\PSoC5/isr_rx_2.c **** *
 284:.\Generated_Source\PSoC5/isr_rx_2.c **** * Summary:
 285:.\Generated_Source\PSoC5/isr_rx_2.c **** *   Enables the interrupt to the interrupt controller. Do not call this function
 286:.\Generated_Source\PSoC5/isr_rx_2.c **** *   unless ISR_Start() has been called or the functionality of the ISR_Start() 
 287:.\Generated_Source\PSoC5/isr_rx_2.c **** *   function, which sets the vector and the priority, has been called.
 288:.\Generated_Source\PSoC5/isr_rx_2.c **** *
 289:.\Generated_Source\PSoC5/isr_rx_2.c **** * Parameters:
 290:.\Generated_Source\PSoC5/isr_rx_2.c **** *   None
 291:.\Generated_Source\PSoC5/isr_rx_2.c **** *
 292:.\Generated_Source\PSoC5/isr_rx_2.c **** * Return:
 293:.\Generated_Source\PSoC5/isr_rx_2.c **** *   None
 294:.\Generated_Source\PSoC5/isr_rx_2.c **** *
 295:.\Generated_Source\PSoC5/isr_rx_2.c **** *******************************************************************************/
 296:.\Generated_Source\PSoC5/isr_rx_2.c **** void isr_rx_2_Enable(void)
 297:.\Generated_Source\PSoC5/isr_rx_2.c **** {
 138              		.loc 1 297 0
 139              		.cfi_startproc
 140              		@ args = 0, pretend = 0, frame = 0
 141              		@ frame_needed = 0, uses_anonymous_args = 0
 142              		@ link register save eliminated.
 298:.\Generated_Source\PSoC5/isr_rx_2.c ****     /* Enable the general interrupt. */
 299:.\Generated_Source\PSoC5/isr_rx_2.c ****     *isr_rx_2_INTC_SET_EN = isr_rx_2__INTC_MASK;
 143              		.loc 1 299 0
 144 0000 0222     		movs	r2, #2
 145 0002 014B     		ldr	r3, .L14
 146 0004 1A60     		str	r2, [r3]
 147 0006 7047     		bx	lr
 148              	.L15:
 149              		.align	2
 150              	.L14:
 151 0008 00E100E0 		.word	-536813312
 152              		.cfi_endproc
 153              	.LFE70:
 154              		.size	isr_rx_2_Enable, .-isr_rx_2_Enable
 155              		.section	.text.isr_rx_2_GetState,"ax",%progbits
 156              		.align	2
 157              		.global	isr_rx_2_GetState
ARM GAS  C:\Users\dell1\AppData\Local\Temp\ccAxqfau.s 			page 9


 158              		.thumb
 159              		.thumb_func
 160              		.type	isr_rx_2_GetState, %function
 161              	isr_rx_2_GetState:
 162              	.LFB71:
 300:.\Generated_Source\PSoC5/isr_rx_2.c **** }
 301:.\Generated_Source\PSoC5/isr_rx_2.c **** 
 302:.\Generated_Source\PSoC5/isr_rx_2.c **** 
 303:.\Generated_Source\PSoC5/isr_rx_2.c **** /*******************************************************************************
 304:.\Generated_Source\PSoC5/isr_rx_2.c **** * Function Name: isr_rx_2_GetState
 305:.\Generated_Source\PSoC5/isr_rx_2.c **** ********************************************************************************
 306:.\Generated_Source\PSoC5/isr_rx_2.c **** *
 307:.\Generated_Source\PSoC5/isr_rx_2.c **** * Summary:
 308:.\Generated_Source\PSoC5/isr_rx_2.c **** *   Gets the state (enabled, disabled) of the Interrupt.
 309:.\Generated_Source\PSoC5/isr_rx_2.c **** *
 310:.\Generated_Source\PSoC5/isr_rx_2.c **** * Parameters:
 311:.\Generated_Source\PSoC5/isr_rx_2.c **** *   None
 312:.\Generated_Source\PSoC5/isr_rx_2.c **** *
 313:.\Generated_Source\PSoC5/isr_rx_2.c **** * Return:
 314:.\Generated_Source\PSoC5/isr_rx_2.c **** *   1 if enabled, 0 if disabled.
 315:.\Generated_Source\PSoC5/isr_rx_2.c **** *
 316:.\Generated_Source\PSoC5/isr_rx_2.c **** *******************************************************************************/
 317:.\Generated_Source\PSoC5/isr_rx_2.c **** uint8 isr_rx_2_GetState(void)
 318:.\Generated_Source\PSoC5/isr_rx_2.c **** {
 163              		.loc 1 318 0
 164              		.cfi_startproc
 165              		@ args = 0, pretend = 0, frame = 0
 166              		@ frame_needed = 0, uses_anonymous_args = 0
 167              		@ link register save eliminated.
 319:.\Generated_Source\PSoC5/isr_rx_2.c ****     /* Get the state of the general interrupt. */
 320:.\Generated_Source\PSoC5/isr_rx_2.c ****     return ((*isr_rx_2_INTC_SET_EN & (uint32)isr_rx_2__INTC_MASK) != 0u) ? 1u:0u;
 168              		.loc 1 320 0
 169 0000 044B     		ldr	r3, .L19
 170 0002 1B68     		ldr	r3, [r3]
 171 0004 13F0020F 		tst	r3, #2
 172 0008 01D0     		beq	.L18
 173 000a 0120     		movs	r0, #1
 174 000c 7047     		bx	lr
 175              	.L18:
 176 000e 0020     		movs	r0, #0
 321:.\Generated_Source\PSoC5/isr_rx_2.c **** }
 177              		.loc 1 321 0
 178 0010 7047     		bx	lr
 179              	.L20:
 180 0012 00BF     		.align	2
 181              	.L19:
 182 0014 00E100E0 		.word	-536813312
 183              		.cfi_endproc
 184              	.LFE71:
 185              		.size	isr_rx_2_GetState, .-isr_rx_2_GetState
 186              		.section	.text.isr_rx_2_Disable,"ax",%progbits
 187              		.align	2
 188              		.global	isr_rx_2_Disable
 189              		.thumb
 190              		.thumb_func
 191              		.type	isr_rx_2_Disable, %function
 192              	isr_rx_2_Disable:
ARM GAS  C:\Users\dell1\AppData\Local\Temp\ccAxqfau.s 			page 10


 193              	.LFB72:
 322:.\Generated_Source\PSoC5/isr_rx_2.c **** 
 323:.\Generated_Source\PSoC5/isr_rx_2.c **** 
 324:.\Generated_Source\PSoC5/isr_rx_2.c **** /*******************************************************************************
 325:.\Generated_Source\PSoC5/isr_rx_2.c **** * Function Name: isr_rx_2_Disable
 326:.\Generated_Source\PSoC5/isr_rx_2.c **** ********************************************************************************
 327:.\Generated_Source\PSoC5/isr_rx_2.c **** *
 328:.\Generated_Source\PSoC5/isr_rx_2.c **** * Summary:
 329:.\Generated_Source\PSoC5/isr_rx_2.c **** *   Disables the Interrupt in the interrupt controller.
 330:.\Generated_Source\PSoC5/isr_rx_2.c **** *
 331:.\Generated_Source\PSoC5/isr_rx_2.c **** * Parameters:
 332:.\Generated_Source\PSoC5/isr_rx_2.c **** *   None
 333:.\Generated_Source\PSoC5/isr_rx_2.c **** *
 334:.\Generated_Source\PSoC5/isr_rx_2.c **** * Return:
 335:.\Generated_Source\PSoC5/isr_rx_2.c **** *   None
 336:.\Generated_Source\PSoC5/isr_rx_2.c **** *
 337:.\Generated_Source\PSoC5/isr_rx_2.c **** *******************************************************************************/
 338:.\Generated_Source\PSoC5/isr_rx_2.c **** void isr_rx_2_Disable(void)
 339:.\Generated_Source\PSoC5/isr_rx_2.c **** {
 194              		.loc 1 339 0
 195              		.cfi_startproc
 196              		@ args = 0, pretend = 0, frame = 0
 197              		@ frame_needed = 0, uses_anonymous_args = 0
 198              		@ link register save eliminated.
 340:.\Generated_Source\PSoC5/isr_rx_2.c ****     /* Disable the general interrupt. */
 341:.\Generated_Source\PSoC5/isr_rx_2.c ****     *isr_rx_2_INTC_CLR_EN = isr_rx_2__INTC_MASK;
 199              		.loc 1 341 0
 200 0000 0222     		movs	r2, #2
 201 0002 014B     		ldr	r3, .L22
 202 0004 1A60     		str	r2, [r3]
 203 0006 7047     		bx	lr
 204              	.L23:
 205              		.align	2
 206              	.L22:
 207 0008 80E100E0 		.word	-536813184
 208              		.cfi_endproc
 209              	.LFE72:
 210              		.size	isr_rx_2_Disable, .-isr_rx_2_Disable
 211              		.section	.text.isr_rx_2_Start,"ax",%progbits
 212              		.align	2
 213              		.global	isr_rx_2_Start
 214              		.thumb
 215              		.thumb_func
 216              		.type	isr_rx_2_Start, %function
 217              	isr_rx_2_Start:
 218              	.LFB63:
  62:.\Generated_Source\PSoC5/isr_rx_2.c ****     /* For all we know the interrupt is active. */
 219              		.loc 1 62 0
 220              		.cfi_startproc
 221              		@ args = 0, pretend = 0, frame = 0
 222              		@ frame_needed = 0, uses_anonymous_args = 0
 223 0000 08B5     		push	{r3, lr}
 224              		.cfi_def_cfa_offset 8
 225              		.cfi_offset 3, -8
 226              		.cfi_offset 14, -4
  64:.\Generated_Source\PSoC5/isr_rx_2.c **** 
 227              		.loc 1 64 0
ARM GAS  C:\Users\dell1\AppData\Local\Temp\ccAxqfau.s 			page 11


 228 0002 FFF7FEFF 		bl	isr_rx_2_Disable
 229              	.LVL7:
  67:.\Generated_Source\PSoC5/isr_rx_2.c **** 
 230              		.loc 1 67 0
 231 0006 0448     		ldr	r0, .L26
 232 0008 FFF7FEFF 		bl	isr_rx_2_SetVector
 233              	.LVL8:
  70:.\Generated_Source\PSoC5/isr_rx_2.c **** 
 234              		.loc 1 70 0
 235 000c 0720     		movs	r0, #7
 236 000e FFF7FEFF 		bl	isr_rx_2_SetPriority
 237              	.LVL9:
  73:.\Generated_Source\PSoC5/isr_rx_2.c **** }
 238              		.loc 1 73 0
 239 0012 FFF7FEFF 		bl	isr_rx_2_Enable
 240              	.LVL10:
 241 0016 08BD     		pop	{r3, pc}
 242              	.L27:
 243              		.align	2
 244              	.L26:
 245 0018 00000000 		.word	isr_rx_2_Interrupt
 246              		.cfi_endproc
 247              	.LFE63:
 248              		.size	isr_rx_2_Start, .-isr_rx_2_Start
 249              		.section	.text.isr_rx_2_StartEx,"ax",%progbits
 250              		.align	2
 251              		.global	isr_rx_2_StartEx
 252              		.thumb
 253              		.thumb_func
 254              		.type	isr_rx_2_StartEx, %function
 255              	isr_rx_2_StartEx:
 256              	.LFB64:
 105:.\Generated_Source\PSoC5/isr_rx_2.c ****     /* For all we know the interrupt is active. */
 257              		.loc 1 105 0
 258              		.cfi_startproc
 259              		@ args = 0, pretend = 0, frame = 0
 260              		@ frame_needed = 0, uses_anonymous_args = 0
 261              	.LVL11:
 262 0000 10B5     		push	{r4, lr}
 263              		.cfi_def_cfa_offset 8
 264              		.cfi_offset 4, -8
 265              		.cfi_offset 14, -4
 266 0002 0446     		mov	r4, r0
 107:.\Generated_Source\PSoC5/isr_rx_2.c **** 
 267              		.loc 1 107 0
 268 0004 FFF7FEFF 		bl	isr_rx_2_Disable
 269              	.LVL12:
 110:.\Generated_Source\PSoC5/isr_rx_2.c **** 
 270              		.loc 1 110 0
 271 0008 2046     		mov	r0, r4
 272 000a FFF7FEFF 		bl	isr_rx_2_SetVector
 273              	.LVL13:
 113:.\Generated_Source\PSoC5/isr_rx_2.c **** 
 274              		.loc 1 113 0
 275 000e 0720     		movs	r0, #7
 276 0010 FFF7FEFF 		bl	isr_rx_2_SetPriority
 277              	.LVL14:
ARM GAS  C:\Users\dell1\AppData\Local\Temp\ccAxqfau.s 			page 12


 116:.\Generated_Source\PSoC5/isr_rx_2.c **** }
 278              		.loc 1 116 0
 279 0014 FFF7FEFF 		bl	isr_rx_2_Enable
 280              	.LVL15:
 281 0018 10BD     		pop	{r4, pc}
 282              		.cfi_endproc
 283              	.LFE64:
 284              		.size	isr_rx_2_StartEx, .-isr_rx_2_StartEx
 285 001a 00BF     		.section	.text.isr_rx_2_Stop,"ax",%progbits
 286              		.align	2
 287              		.global	isr_rx_2_Stop
 288              		.thumb
 289              		.thumb_func
 290              		.type	isr_rx_2_Stop, %function
 291              	isr_rx_2_Stop:
 292              	.LFB65:
 135:.\Generated_Source\PSoC5/isr_rx_2.c ****     /* Disable this interrupt. */
 293              		.loc 1 135 0
 294              		.cfi_startproc
 295              		@ args = 0, pretend = 0, frame = 0
 296              		@ frame_needed = 0, uses_anonymous_args = 0
 297 0000 08B5     		push	{r3, lr}
 298              		.cfi_def_cfa_offset 8
 299              		.cfi_offset 3, -8
 300              		.cfi_offset 14, -4
 137:.\Generated_Source\PSoC5/isr_rx_2.c **** 
 301              		.loc 1 137 0
 302 0002 FFF7FEFF 		bl	isr_rx_2_Disable
 303              	.LVL16:
 140:.\Generated_Source\PSoC5/isr_rx_2.c **** }
 304              		.loc 1 140 0
 305 0006 0248     		ldr	r0, .L32
 306 0008 FFF7FEFF 		bl	isr_rx_2_SetVector
 307              	.LVL17:
 308 000c 08BD     		pop	{r3, pc}
 309              	.L33:
 310 000e 00BF     		.align	2
 311              	.L32:
 312 0010 00000000 		.word	IntDefaultHandler
 313              		.cfi_endproc
 314              	.LFE65:
 315              		.size	isr_rx_2_Stop, .-isr_rx_2_Stop
 316              		.section	.text.isr_rx_2_SetPending,"ax",%progbits
 317              		.align	2
 318              		.global	isr_rx_2_SetPending
 319              		.thumb
 320              		.thumb_func
 321              		.type	isr_rx_2_SetPending, %function
 322              	isr_rx_2_SetPending:
 323              	.LFB73:
 342:.\Generated_Source\PSoC5/isr_rx_2.c **** }
 343:.\Generated_Source\PSoC5/isr_rx_2.c **** 
 344:.\Generated_Source\PSoC5/isr_rx_2.c **** 
 345:.\Generated_Source\PSoC5/isr_rx_2.c **** /*******************************************************************************
 346:.\Generated_Source\PSoC5/isr_rx_2.c **** * Function Name: isr_rx_2_SetPending
 347:.\Generated_Source\PSoC5/isr_rx_2.c **** ********************************************************************************
 348:.\Generated_Source\PSoC5/isr_rx_2.c **** *
ARM GAS  C:\Users\dell1\AppData\Local\Temp\ccAxqfau.s 			page 13


 349:.\Generated_Source\PSoC5/isr_rx_2.c **** * Summary:
 350:.\Generated_Source\PSoC5/isr_rx_2.c **** *   Causes the Interrupt to enter the pending state, a software method of
 351:.\Generated_Source\PSoC5/isr_rx_2.c **** *   generating the interrupt.
 352:.\Generated_Source\PSoC5/isr_rx_2.c **** *
 353:.\Generated_Source\PSoC5/isr_rx_2.c **** * Parameters:
 354:.\Generated_Source\PSoC5/isr_rx_2.c **** *   None
 355:.\Generated_Source\PSoC5/isr_rx_2.c **** *
 356:.\Generated_Source\PSoC5/isr_rx_2.c **** * Return:
 357:.\Generated_Source\PSoC5/isr_rx_2.c **** *   None
 358:.\Generated_Source\PSoC5/isr_rx_2.c **** *
 359:.\Generated_Source\PSoC5/isr_rx_2.c **** * Side Effects:
 360:.\Generated_Source\PSoC5/isr_rx_2.c **** *   If interrupts are enabled and the interrupt is set up properly, the ISR is
 361:.\Generated_Source\PSoC5/isr_rx_2.c **** *   entered (depending on the priority of this interrupt and other pending 
 362:.\Generated_Source\PSoC5/isr_rx_2.c **** *   interrupts).
 363:.\Generated_Source\PSoC5/isr_rx_2.c **** *
 364:.\Generated_Source\PSoC5/isr_rx_2.c **** *******************************************************************************/
 365:.\Generated_Source\PSoC5/isr_rx_2.c **** void isr_rx_2_SetPending(void)
 366:.\Generated_Source\PSoC5/isr_rx_2.c **** {
 324              		.loc 1 366 0
 325              		.cfi_startproc
 326              		@ args = 0, pretend = 0, frame = 0
 327              		@ frame_needed = 0, uses_anonymous_args = 0
 328              		@ link register save eliminated.
 367:.\Generated_Source\PSoC5/isr_rx_2.c ****     *isr_rx_2_INTC_SET_PD = isr_rx_2__INTC_MASK;
 329              		.loc 1 367 0
 330 0000 0222     		movs	r2, #2
 331 0002 014B     		ldr	r3, .L35
 332 0004 1A60     		str	r2, [r3]
 333 0006 7047     		bx	lr
 334              	.L36:
 335              		.align	2
 336              	.L35:
 337 0008 00E200E0 		.word	-536813056
 338              		.cfi_endproc
 339              	.LFE73:
 340              		.size	isr_rx_2_SetPending, .-isr_rx_2_SetPending
 341              		.section	.text.isr_rx_2_ClearPending,"ax",%progbits
 342              		.align	2
 343              		.global	isr_rx_2_ClearPending
 344              		.thumb
 345              		.thumb_func
 346              		.type	isr_rx_2_ClearPending, %function
 347              	isr_rx_2_ClearPending:
 348              	.LFB74:
 368:.\Generated_Source\PSoC5/isr_rx_2.c **** }
 369:.\Generated_Source\PSoC5/isr_rx_2.c **** 
 370:.\Generated_Source\PSoC5/isr_rx_2.c **** 
 371:.\Generated_Source\PSoC5/isr_rx_2.c **** /*******************************************************************************
 372:.\Generated_Source\PSoC5/isr_rx_2.c **** * Function Name: isr_rx_2_ClearPending
 373:.\Generated_Source\PSoC5/isr_rx_2.c **** ********************************************************************************
 374:.\Generated_Source\PSoC5/isr_rx_2.c **** *
 375:.\Generated_Source\PSoC5/isr_rx_2.c **** * Summary:
 376:.\Generated_Source\PSoC5/isr_rx_2.c **** *   Clears a pending interrupt in the interrupt controller.
 377:.\Generated_Source\PSoC5/isr_rx_2.c **** *
 378:.\Generated_Source\PSoC5/isr_rx_2.c **** *   Note Some interrupt sources are clear-on-read and require the block 
 379:.\Generated_Source\PSoC5/isr_rx_2.c **** *   interrupt/status register to be read/cleared with the appropriate block API 
 380:.\Generated_Source\PSoC5/isr_rx_2.c **** *   (GPIO, UART, and so on). Otherwise the ISR will continue to remain in 
ARM GAS  C:\Users\dell1\AppData\Local\Temp\ccAxqfau.s 			page 14


 381:.\Generated_Source\PSoC5/isr_rx_2.c **** *   pending state even though the interrupt itself is cleared using this API.
 382:.\Generated_Source\PSoC5/isr_rx_2.c **** *
 383:.\Generated_Source\PSoC5/isr_rx_2.c **** * Parameters:
 384:.\Generated_Source\PSoC5/isr_rx_2.c **** *   None
 385:.\Generated_Source\PSoC5/isr_rx_2.c **** *
 386:.\Generated_Source\PSoC5/isr_rx_2.c **** * Return:
 387:.\Generated_Source\PSoC5/isr_rx_2.c **** *   None
 388:.\Generated_Source\PSoC5/isr_rx_2.c **** *
 389:.\Generated_Source\PSoC5/isr_rx_2.c **** *******************************************************************************/
 390:.\Generated_Source\PSoC5/isr_rx_2.c **** void isr_rx_2_ClearPending(void)
 391:.\Generated_Source\PSoC5/isr_rx_2.c **** {
 349              		.loc 1 391 0
 350              		.cfi_startproc
 351              		@ args = 0, pretend = 0, frame = 0
 352              		@ frame_needed = 0, uses_anonymous_args = 0
 353              		@ link register save eliminated.
 392:.\Generated_Source\PSoC5/isr_rx_2.c ****     *isr_rx_2_INTC_CLR_PD = isr_rx_2__INTC_MASK;
 354              		.loc 1 392 0
 355 0000 0222     		movs	r2, #2
 356 0002 014B     		ldr	r3, .L38
 357 0004 1A60     		str	r2, [r3]
 358 0006 7047     		bx	lr
 359              	.L39:
 360              		.align	2
 361              	.L38:
 362 0008 80E200E0 		.word	-536812928
 363              		.cfi_endproc
 364              	.LFE74:
 365              		.size	isr_rx_2_ClearPending, .-isr_rx_2_ClearPending
 366              		.text
 367              	.Letext0:
 368              		.file 2 "f:\\psoc\\psoc creator\\3.3\\psoc creator\\import\\gnu\\arm\\4.9.3\\arm-none-eabi\\includ
 369              		.file 3 "f:\\psoc\\psoc creator\\3.3\\psoc creator\\import\\gnu\\arm\\4.9.3\\arm-none-eabi\\includ
 370              		.file 4 "Generated_Source\\PSoC5/cytypes.h"
 371              		.file 5 "Generated_Source\\PSoC5/core_cm3.h"